Certificate:
    Data:
        Version: 3 (0x2)
        Serial Number:
            31:e0:63:29:be:b4:52:de:22:6d:03:b1:85:22:65:ec:7c:de:88:c5
        Signature Algorithm: sha1WithRSAEncryption
        Issuer: C=AU, O=Dodgy Brothers, CN=Dodgy CA
        Validity
            Not Before: Feb  6 07:53:32 2023 GMT
            Not After : Feb  5 07:53:32 2026 GMT
        Subject: C=AU, O=Dodgy Brothers, CN=Dodgy CA
        Subject Public Key Info:
            Public Key Algorithm: rsaEncryption
                Public-Key: (2048 bit)
                Modulus:
                    00:96:9d:a4:3d:00:4b:1c:5f:c6:cb:dd:8f:d2:31:
                    b2:88:15:cc:c4:86:2c:5c:e2:69:8b:84:f4:a7:a3:
                    53:df:91:e3:bf:51:89:fb:f0:7c:10:0d:3b:ad:ac:
                    35:62:75:f5:7f:ff:f4:6e:54:8f:05:a6:92:23:b3:
                    9f:59:39:d0:39:18:b0:10:40:de:62:73:8a:4e:b0:
                    8e:df:dc:e7:c9:41:22:54:84:80:08:29:bc:35:3c:
                    86:df:30:de:dd:b4:24:ff:7e:62:a5:c0:7a:e8:2a:
                    16:3f:d6:97:da:c5:42:db:2f:69:64:91:cb:08:d7:
                    56:5a:79:7f:1b:84:41:e9:4d:9d:77:09:10:a8:6c:
                    29:33:44:c6:c0:54:65:e6:e8:e3:f2:75:05:6a:64:
                    95:6c:c0:f4:fd:25:61:6e:48:36:f0:c0:03:07:05:
                    d6:7c:e5:11:fd:18:e8:4a:2d:d3:72:0c:37:28:36:
                    31:31:38:85:e8:71:8d:d8:02:49:c8:bc:19:89:c5:
                    8a:b1:3f:a2:35:ea:aa:90:1c:64:68:7b:af:67:6a:
                    5a:06:54:0f:50:e1:f9:b4:f6:be:3a:d4:ce:3f:1e:
                    4c:7d:c6:77:32:3e:a2:58:ed:db:dd:74:d8:92:14:
                    6a:a8:f7:cb:34:58:91:a8:7c:14:b1:7d:08:b3:4d:
                    b1:47
                Exponent: 65537 (0x10001)
        X509v3 extensions:
            X509v3 Subject Key Identifier: 
                B4:11:33:F1:D7:E2:5E:F7:53:9E:20:22:10:4F:86:06:BF:1F:C9:5E
            X509v3 Authority Key Identifier: 
                keyid:B4:11:33:F1:D7:E2:5E:F7:53:9E:20:22:10:4F:86:06:BF:1F:C9:5E
                DirName:/C=AU/O=Dodgy Brothers/CN=Dodgy CA
                serial:31:E0:63:29:BE:B4:52:DE:22:6D:03:B1:85:22:65:EC:7C:DE:88:C5
            X509v3 Basic Constraints: critical
                CA:TRUE, pathlen:1
            X509v3 Key Usage: 
                Certificate Sign, CRL Sign
            X509v3 Issuer Alternative Name: 
                <EMPTY>

    Signature Algorithm: sha1WithRSAEncryption
    Signature Value:
        16:40:1b:df:a8:d4:d7:30:2c:fa:d2:86:c6:af:05:d1:8c:6b:
        f6:26:46:6a:05:38:dd:ba:d6:89:34:9d:fe:4b:f7:8e:2f:47:
        8d:29:2c:5c:d4:20:0c:a1:7c:49:1a:67:40:11:05:15:36:0f:
        51:8c:ca:4b:7d:ef:13:51:29:9c:77:0e:61:c0:1e:d9:f9:0a:
        ba:64:2e:0a:9e:6b:96:db:13:4a:93:e8:17:c9:a2:ff:3c:2a:
        6f:fd:a1:9f:ed:0d:fa:82:6a:9b:fc:1d:d3:2c:5f:13:ab:b6:
        2b:de:0e:2f:33:d3:7e:c2:82:4a:fd:75:17:0c:0b:5d:99:82:
        b5:d7:90:79:f8:62:a6:44:55:b3:e3:4f:f7:91:50:b7:7d:d0:
        d6:69:c0:67:bf:04:b0:4f:64:03:9d:2f:1d:b9:bf:05:18:84:
        c5:57:7f:3b:d9:9b:94:fa:50:24:59:b1:e3:8c:72:75:b0:50:
        35:1d:a8:b2:00:9b:a3:67:2c:40:cd:35:5e:58:1b:a1:3c:48:
        6b:fe:d8:ee:de:67:63:17:27:66:57:63:97:b4:fb:0e:ca:7b:
        ad:dd:90:5b:fa:e6:b9:54:2a:90:10:a5:a3:ee:76:f1:98:c8:
        45:af:8a:96:95:ca:f4:db:89:a2:8a:31:17:60:17:ab:fb:64:
        8f:4a:4a:94
-----BEGIN CERTIFICATE-----
MIIDxTCCAq2gAwIBAgIUMeBjKb60Ut4ibQOxhSJl7HzeiMUwDQYJKoZIhvcNAQEF
BQAwOTELMAkGA1UEBhMCQVUxFzAVBgNVBAoMDkRvZGd5IEJyb3RoZXJzMREwDwYD
VQQDDAhEb2RneSBDQTAeFw0yMzAyMDYwNzUzMzJaFw0yNjAyMDUwNzUzMzJaMDkx
CzAJBgNVBAYTAkFVMRcwFQYDVQQKDA5Eb2RneSBCcm90aGVyczERMA8GA1UEAwwI
RG9kZ3kgQ0EwggEiMA0GCSqGSIb3DQEBAQUAA4IBDwAwggEKAoIBAQCWnaQ9AEsc
X8bL3Y/SMbKIFczEhixc4mmLhPSno1PfkeO/UYn78HwQDTutrDVidfV///RuVI8F
ppIjs59ZOdA5GLAQQN5ic4pOsI7f3OfJQSJUhIAIKbw1PIbfMN7dtCT/fmKlwHro
KhY/1pfaxULbL2lkkcsI11ZaeX8bhEHpTZ13CRCobCkzRMbAVGXm6OPydQVqZJVs
wPT9JWFuSDbwwAMHBdZ85RH9GOhKLdNyDDcoNjExOIXocY3YAknIvBmJxYqxP6I1
6qqQHGRoe69naloGVA9Q4fm09r461M4/Hkx9xncyPqJY7dvddNiSFGqo98s0WJGo
fBSxfQizTbFHAgMBAAGjgcQwgcEwHQYDVR0OBBYEFLQRM/HX4l73U54gIhBPhga/
H8leMHQGA1UdIwRtMGuAFLQRM/HX4l73U54gIhBPhga/H8leoT2kOzA5MQswCQYD
VQQGEwJBVTEXMBUGA1UECgwORG9kZ3kgQnJvdGhlcnMxETAPBgNVBAMMCERvZGd5
IENBghQx4GMpvrRS3iJtA7GFImXsfN6IxTASBgNVHRMBAf8ECDAGAQH/AgEBMAsG
A1UdDwQEAwIBBjAJBgNVHRIEAjAAMA0GCSqGSIb3DQEBBQUAA4IBAQAWQBvfqNTX
MCz60obGrwXRjGv2JkZqBTjdutaJNJ3+S/eOL0eNKSxc1CAMoXxJGmdAEQUVNg9R
jMpLfe8TUSmcdw5hwB7Z+Qq6ZC4KnmuW2xNKk+gXyaL/PCpv/aGf7Q36gmqb/B3T
LF8Tq7Yr3g4vM9N+woJK/XUXDAtdmYK115B5+GKmRFWz40/3kVC3fdDWacBnvwSw
T2QDnS8dub8FGITFV3872ZuU+lAkWbHjjHJ1sFA1HaiyAJujZyxAzTVeWBuhPEhr
/tju3mdjFydmV2OXtPsOynut3ZBb+ua5VCqQEKWj7nbxmMhFr4qWlcr024miijEX
YBer+2SPSkqU
-----END CERTIFICATE-----
