Certificate:
    Data:
        Version: 3 (0x2)
        Serial Number:
            61:16:d3:61:30:73:38:47:54:8c:79:a9:8c:0c:2a:2b:d8:1e:26:d0
        Signature Algorithm: sha1WithRSAEncryption
        Issuer: C=AU, O=Dodgy Brothers, CN=Dodgy CA
        Validity
            Not Before: Feb  6 07:53:36 2023 GMT
            Not After : Feb  6 07:53:36 2024 GMT
        Subject: C=AU, O=Dodgy Brothers, CN=Brother 1, CN=nextupdate_invalid
        Subject Public Key Info:
            Public Key Algorithm: rsaEncryption
                Public-Key: (2048 bit)
                Modulus:
                    00:be:95:86:fa:71:4c:6a:ea:51:98:50:4b:99:a1:
                    2c:66:15:f3:60:f3:e1:ff:69:fb:ce:48:01:1d:fe:
                    e1:2c:38:b0:e3:bd:8f:4b:48:a7:7e:3a:c6:73:e3:
                    ab:bf:e1:da:6e:96:f5:fe:c3:e4:b4:a8:ad:bc:56:
                    34:d4:96:25:74:27:c3:10:db:35:10:25:1c:8e:4b:
                    81:9b:fb:42:04:7c:6f:3d:e2:38:6c:0e:e4:2e:8e:
                    2a:18:6d:30:cd:67:2a:23:6b:37:cf:05:9f:cc:b7:
                    59:58:7f:ba:c4:0a:3f:8c:a4:ad:cb:98:9c:c0:f2:
                    8f:69:67:0f:c1:4e:33:cf:fc:85:5e:bb:5e:cf:93:
                    b0:cf:d9:f4:52:79:87:b1:f8:4d:15:68:65:d5:b7:
                    19:08:63:7f:5e:b1:34:ad:05:8f:5a:f0:e4:e1:8f:
                    25:f2:5c:5c:61:95:b0:56:2d:31:2b:08:65:79:e5:
                    b1:3b:9d:3e:b9:52:4b:ac:5d:c4:58:66:85:8d:81:
                    b3:04:28:f4:3f:2f:ac:92:01:62:d5:fd:8e:0b:da:
                    02:0c:7a:c7:6e:09:1c:ac:1c:b2:4c:d7:54:b8:26:
                    33:b2:5f:14:f3:b1:f9:3d:62:4d:40:99:6b:b6:e7:
                    89:58:97:d6:d4:4d:ea:4b:68:52:f3:3c:a8:b1:35:
                    88:db
                Exponent: 65537 (0x10001)
        X509v3 extensions:
            X509v3 Subject Key Identifier: 
                A1:DF:33:C3:CF:3E:53:41:A7:68:44:CC:AA:19:E1:84:C9:0D:BC:C6
            X509v3 Authority Key Identifier: 
                keyid:B4:11:33:F1:D7:E2:5E:F7:53:9E:20:22:10:4F:86:06:BF:1F:C9:5E
                DirName:/C=AU/O=Dodgy Brothers/CN=Dodgy CA
                serial:31:E0:63:29:BE:B4:52:DE:22:6D:03:B1:85:22:65:EC:7C:DE:88:C5
            X509v3 Basic Constraints: critical
                CA:TRUE, pathlen:1
            X509v3 Key Usage: 
                Certificate Sign, CRL Sign
            X509v3 Issuer Alternative Name: 
                <EMPTY>

    Signature Algorithm: sha1WithRSAEncryption
    Signature Value:
        7d:7e:df:f0:5f:ef:42:08:ae:7c:05:05:e8:74:bc:68:54:2a:
        47:38:49:49:42:cd:58:31:8a:cc:9e:50:16:98:ee:ca:7f:29:
        7f:ba:f3:15:ed:61:d9:50:d1:c0:79:45:31:6b:3f:fd:6c:08:
        7a:87:4a:bd:b2:63:74:94:22:76:d5:0a:2a:1d:26:27:d0:4a:
        c0:30:54:25:5b:76:48:64:20:99:13:83:41:e4:2d:92:a8:6f:
        6f:83:78:5d:7f:1c:4f:ff:82:7c:ee:79:dd:87:dd:84:fc:8f:
        d8:ad:fd:f0:91:cf:42:17:d1:d3:45:0c:9b:c3:ad:d3:60:c3:
        d1:45:6e:8a:37:e2:10:23:01:9c:78:83:66:1b:f2:a6:f3:ae:
        42:51:0e:65:4b:3b:ce:53:98:f8:fc:8e:ac:cf:c4:cc:d6:38:
        62:a2:c1:1e:2b:bf:4f:46:85:1d:2f:95:ff:f9:d6:1c:30:dc:
        9c:24:f0:13:36:2d:fa:31:cb:8e:04:57:72:28:24:6b:90:7c:
        9a:3e:1c:3f:e2:7f:3b:e7:0b:7b:b1:76:9a:1a:5c:7b:3e:82:
        8f:a9:52:60:af:d5:43:ce:26:73:42:17:3c:ad:c3:ae:85:c4:
        c1:7b:57:c5:9b:e5:c6:c8:8b:a1:37:9d:e6:34:8b:44:92:26:
        77:7c:21:91
-----BEGIN CERTIFICATE-----
MIID4zCCAsugAwIBAgIUYRbTYTBzOEdUjHmpjAwqK9geJtAwDQYJKoZIhvcNAQEF
BQAwOTELMAkGA1UEBhMCQVUxFzAVBgNVBAoMDkRvZGd5IEJyb3RoZXJzMREwDwYD
VQQDDAhEb2RneSBDQTAeFw0yMzAyMDYwNzUzMzZaFw0yNDAyMDYwNzUzMzZaMFcx
CzAJBgNVBAYTAkFVMRcwFQYDVQQKDA5Eb2RneSBCcm90aGVyczESMBAGA1UEAwwJ
QnJvdGhlciAxMRswGQYDVQQDDBJuZXh0dXBkYXRlX2ludmFsaWQwggEiMA0GCSqG
SIb3DQEBAQUAA4IBDwAwggEKAoIBAQC+lYb6cUxq6lGYUEuZoSxmFfNg8+H/afvO
SAEd/uEsOLDjvY9LSKd+OsZz46u/4dpulvX+w+S0qK28VjTUliV0J8MQ2zUQJRyO
S4Gb+0IEfG894jhsDuQujioYbTDNZyojazfPBZ/Mt1lYf7rECj+MpK3LmJzA8o9p
Zw/BTjPP/IVeu17Pk7DP2fRSeYex+E0VaGXVtxkIY39esTStBY9a8OThjyXyXFxh
lbBWLTErCGV55bE7nT65UkusXcRYZoWNgbMEKPQ/L6ySAWLV/Y4L2gIMesduCRys
HLJM11S4JjOyXxTzsfk9Yk1AmWu254lYl9bUTepLaFLzPKixNYjbAgMBAAGjgcQw
gcEwHQYDVR0OBBYEFKHfM8PPPlNBp2hEzKoZ4YTJDbzGMHQGA1UdIwRtMGuAFLQR
M/HX4l73U54gIhBPhga/H8leoT2kOzA5MQswCQYDVQQGEwJBVTEXMBUGA1UECgwO
RG9kZ3kgQnJvdGhlcnMxETAPBgNVBAMMCERvZGd5IENBghQx4GMpvrRS3iJtA7GF
ImXsfN6IxTASBgNVHRMBAf8ECDAGAQH/AgEBMAsGA1UdDwQEAwIBBjAJBgNVHRIE
AjAAMA0GCSqGSIb3DQEBBQUAA4IBAQB9ft/wX+9CCK58BQXodLxoVCpHOElJQs1Y
MYrMnlAWmO7Kfyl/uvMV7WHZUNHAeUUxaz/9bAh6h0q9smN0lCJ21QoqHSYn0ErA
MFQlW3ZIZCCZE4NB5C2SqG9vg3hdfxxP/4J87nndh92E/I/Yrf3wkc9CF9HTRQyb
w63TYMPRRW6KN+IQIwGceINmG/Km865CUQ5lSzvOU5j4/I6sz8TM1jhiosEeK79P
RoUdL5X/+dYcMNycJPATNi36McuOBFdyKCRrkHyaPhw/4n875wt7sXaaGlx7PoKP
qVJgr9VDziZzQhc8rcOuhcTBe1fFm+XGyIuhN53mNItEkiZ3fCGR
-----END CERTIFICATE-----
