Certificate:
    Data:
        Version: 3 (0x2)
        Serial Number:
            61:16:d3:61:30:73:38:47:54:8c:79:a9:8c:0c:2a:2b:d8:1e:26:cd
        Signature Algorithm: sha1WithRSAEncryption
        Issuer: C=AU, O=Dodgy Brothers, CN=Dodgy CA
        Validity
            Not Before: Feb  6 07:53:35 2023 GMT
            Not After : Feb  6 07:53:35 2024 GMT
        Subject: C=AU, O=Dodgy Brothers, CN=Brother 1, CN=lastupdate_invalid
        Subject Public Key Info:
            Public Key Algorithm: rsaEncryption
                Public-Key: (2048 bit)
                Modulus:
                    00:be:95:86:fa:71:4c:6a:ea:51:98:50:4b:99:a1:
                    2c:66:15:f3:60:f3:e1:ff:69:fb:ce:48:01:1d:fe:
                    e1:2c:38:b0:e3:bd:8f:4b:48:a7:7e:3a:c6:73:e3:
                    ab:bf:e1:da:6e:96:f5:fe:c3:e4:b4:a8:ad:bc:56:
                    34:d4:96:25:74:27:c3:10:db:35:10:25:1c:8e:4b:
                    81:9b:fb:42:04:7c:6f:3d:e2:38:6c:0e:e4:2e:8e:
                    2a:18:6d:30:cd:67:2a:23:6b:37:cf:05:9f:cc:b7:
                    59:58:7f:ba:c4:0a:3f:8c:a4:ad:cb:98:9c:c0:f2:
                    8f:69:67:0f:c1:4e:33:cf:fc:85:5e:bb:5e:cf:93:
                    b0:cf:d9:f4:52:79:87:b1:f8:4d:15:68:65:d5:b7:
                    19:08:63:7f:5e:b1:34:ad:05:8f:5a:f0:e4:e1:8f:
                    25:f2:5c:5c:61:95:b0:56:2d:31:2b:08:65:79:e5:
                    b1:3b:9d:3e:b9:52:4b:ac:5d:c4:58:66:85:8d:81:
                    b3:04:28:f4:3f:2f:ac:92:01:62:d5:fd:8e:0b:da:
                    02:0c:7a:c7:6e:09:1c:ac:1c:b2:4c:d7:54:b8:26:
                    33:b2:5f:14:f3:b1:f9:3d:62:4d:40:99:6b:b6:e7:
                    89:58:97:d6:d4:4d:ea:4b:68:52:f3:3c:a8:b1:35:
                    88:db
                Exponent: 65537 (0x10001)
        X509v3 extensions:
            X509v3 Subject Key Identifier: 
                A1:DF:33:C3:CF:3E:53:41:A7:68:44:CC:AA:19:E1:84:C9:0D:BC:C6
            X509v3 Authority Key Identifier: 
                keyid:B4:11:33:F1:D7:E2:5E:F7:53:9E:20:22:10:4F:86:06:BF:1F:C9:5E
                DirName:/C=AU/O=Dodgy Brothers/CN=Dodgy CA
                serial:31:E0:63:29:BE:B4:52:DE:22:6D:03:B1:85:22:65:EC:7C:DE:88:C5
            X509v3 Basic Constraints: critical
                CA:TRUE, pathlen:1
            X509v3 Key Usage: 
                Certificate Sign, CRL Sign
            X509v3 Issuer Alternative Name: 
                <EMPTY>

    Signature Algorithm: sha1WithRSAEncryption
    Signature Value:
        0a:4d:ce:eb:64:5f:59:3d:99:7b:8e:4b:1d:0c:5c:35:2e:bf:
        ff:07:22:0b:ba:ee:e7:8a:81:6a:fb:37:a1:0e:f6:15:d9:29:
        2c:36:bd:4f:e7:b2:05:46:e9:14:6b:f7:d0:db:e0:ee:79:e6:
        f9:8c:f0:9b:3f:aa:13:e5:71:dc:4b:79:04:11:b8:37:97:0c:
        b0:38:0c:83:68:9d:b6:a9:4d:82:e7:d1:24:6f:5f:92:1d:2e:
        56:82:5b:71:d2:de:89:de:e5:84:b6:e2:48:9d:00:d2:23:97:
        20:19:6e:cd:df:16:17:3d:7f:7c:9c:bd:a1:ba:3b:0b:5c:08:
        c9:88:d5:f8:41:bb:4a:aa:3d:27:bb:ab:8b:69:8d:c1:4c:f8:
        16:a2:51:13:56:96:f0:4f:82:ad:d2:6c:41:12:23:68:55:fe:
        82:ea:2f:51:6a:e2:38:fa:b2:4d:86:b5:7b:d2:48:fc:a9:a8:
        f5:cb:7a:70:c4:6b:60:93:56:e6:86:21:4a:b4:72:c1:2b:46:
        48:e8:78:e4:6f:59:0a:70:5a:09:27:79:b2:b7:49:e9:40:94:
        c4:12:39:b8:11:00:0f:60:5f:0f:be:cf:73:62:6d:6a:9e:18:
        a2:03:f4:27:89:a6:19:f4:c6:bb:a8:fd:d0:1a:51:17:e5:a9:
        b4:af:ee:a1
-----BEGIN CERTIFICATE-----
MIID4zCCAsugAwIBAgIUYRbTYTBzOEdUjHmpjAwqK9geJs0wDQYJKoZIhvcNAQEF
BQAwOTELMAkGA1UEBhMCQVUxFzAVBgNVBAoMDkRvZGd5IEJyb3RoZXJzMREwDwYD
VQQDDAhEb2RneSBDQTAeFw0yMzAyMDYwNzUzMzVaFw0yNDAyMDYwNzUzMzVaMFcx
CzAJBgNVBAYTAkFVMRcwFQYDVQQKDA5Eb2RneSBCcm90aGVyczESMBAGA1UEAwwJ
QnJvdGhlciAxMRswGQYDVQQDDBJsYXN0dXBkYXRlX2ludmFsaWQwggEiMA0GCSqG
SIb3DQEBAQUAA4IBDwAwggEKAoIBAQC+lYb6cUxq6lGYUEuZoSxmFfNg8+H/afvO
SAEd/uEsOLDjvY9LSKd+OsZz46u/4dpulvX+w+S0qK28VjTUliV0J8MQ2zUQJRyO
S4Gb+0IEfG894jhsDuQujioYbTDNZyojazfPBZ/Mt1lYf7rECj+MpK3LmJzA8o9p
Zw/BTjPP/IVeu17Pk7DP2fRSeYex+E0VaGXVtxkIY39esTStBY9a8OThjyXyXFxh
lbBWLTErCGV55bE7nT65UkusXcRYZoWNgbMEKPQ/L6ySAWLV/Y4L2gIMesduCRys
HLJM11S4JjOyXxTzsfk9Yk1AmWu254lYl9bUTepLaFLzPKixNYjbAgMBAAGjgcQw
gcEwHQYDVR0OBBYEFKHfM8PPPlNBp2hEzKoZ4YTJDbzGMHQGA1UdIwRtMGuAFLQR
M/HX4l73U54gIhBPhga/H8leoT2kOzA5MQswCQYDVQQGEwJBVTEXMBUGA1UECgwO
RG9kZ3kgQnJvdGhlcnMxETAPBgNVBAMMCERvZGd5IENBghQx4GMpvrRS3iJtA7GF
ImXsfN6IxTASBgNVHRMBAf8ECDAGAQH/AgEBMAsGA1UdDwQEAwIBBjAJBgNVHRIE
AjAAMA0GCSqGSIb3DQEBBQUAA4IBAQAKTc7rZF9ZPZl7jksdDFw1Lr//ByILuu7n
ioFq+zehDvYV2SksNr1P57IFRukUa/fQ2+Dueeb5jPCbP6oT5XHcS3kEEbg3lwyw
OAyDaJ22qU2C59Ekb1+SHS5Wgltx0t6J3uWEtuJInQDSI5cgGW7N3xYXPX98nL2h
ujsLXAjJiNX4QbtKqj0nu6uLaY3BTPgWolETVpbwT4Kt0mxBEiNoVf6C6i9RauI4
+rJNhrV70kj8qaj1y3pwxGtgk1bmhiFKtHLBK0ZI6Hjkb1kKcFoJJ3myt0npQJTE
Ejm4EQAPYF8Pvs9zYm1qnhiiA/QniaYZ9Ma7qP3QGlEX5am0r+6h
-----END CERTIFICATE-----
