Certificate:
    Data:
        Version: 3 (0x2)
        Serial Number:
            61:16:d3:61:30:73:38:47:54:8c:79:a9:8c:0c:2a:2b:d8:1e:26:ce
        Signature Algorithm: sha1WithRSAEncryption
        Issuer: C=AU, O=Dodgy Brothers, CN=Dodgy CA
        Validity
            Not Before: Feb  6 07:53:35 2023 GMT
            Not After : Feb  6 07:53:35 2024 GMT
        Subject: C=AU, O=Dodgy Brothers, CN=Brother 1, CN=lastupdate_utctime
        Subject Public Key Info:
            Public Key Algorithm: rsaEncryption
                Public-Key: (2048 bit)
                Modulus:
                    00:be:95:86:fa:71:4c:6a:ea:51:98:50:4b:99:a1:
                    2c:66:15:f3:60:f3:e1:ff:69:fb:ce:48:01:1d:fe:
                    e1:2c:38:b0:e3:bd:8f:4b:48:a7:7e:3a:c6:73:e3:
                    ab:bf:e1:da:6e:96:f5:fe:c3:e4:b4:a8:ad:bc:56:
                    34:d4:96:25:74:27:c3:10:db:35:10:25:1c:8e:4b:
                    81:9b:fb:42:04:7c:6f:3d:e2:38:6c:0e:e4:2e:8e:
                    2a:18:6d:30:cd:67:2a:23:6b:37:cf:05:9f:cc:b7:
                    59:58:7f:ba:c4:0a:3f:8c:a4:ad:cb:98:9c:c0:f2:
                    8f:69:67:0f:c1:4e:33:cf:fc:85:5e:bb:5e:cf:93:
                    b0:cf:d9:f4:52:79:87:b1:f8:4d:15:68:65:d5:b7:
                    19:08:63:7f:5e:b1:34:ad:05:8f:5a:f0:e4:e1:8f:
                    25:f2:5c:5c:61:95:b0:56:2d:31:2b:08:65:79:e5:
                    b1:3b:9d:3e:b9:52:4b:ac:5d:c4:58:66:85:8d:81:
                    b3:04:28:f4:3f:2f:ac:92:01:62:d5:fd:8e:0b:da:
                    02:0c:7a:c7:6e:09:1c:ac:1c:b2:4c:d7:54:b8:26:
                    33:b2:5f:14:f3:b1:f9:3d:62:4d:40:99:6b:b6:e7:
                    89:58:97:d6:d4:4d:ea:4b:68:52:f3:3c:a8:b1:35:
                    88:db
                Exponent: 65537 (0x10001)
        X509v3 extensions:
            X509v3 Subject Key Identifier: 
                A1:DF:33:C3:CF:3E:53:41:A7:68:44:CC:AA:19:E1:84:C9:0D:BC:C6
            X509v3 Authority Key Identifier: 
                keyid:B4:11:33:F1:D7:E2:5E:F7:53:9E:20:22:10:4F:86:06:BF:1F:C9:5E
                DirName:/C=AU/O=Dodgy Brothers/CN=Dodgy CA
                serial:31:E0:63:29:BE:B4:52:DE:22:6D:03:B1:85:22:65:EC:7C:DE:88:C5
            X509v3 Basic Constraints: critical
                CA:TRUE, pathlen:1
            X509v3 Key Usage: 
                Certificate Sign, CRL Sign
            X509v3 Issuer Alternative Name: 
                <EMPTY>

    Signature Algorithm: sha1WithRSAEncryption
    Signature Value:
        29:82:a2:ee:01:54:c6:fe:9d:54:4f:b2:ed:6e:ad:b7:ff:06:
        11:19:54:29:56:f7:d1:b3:d2:34:e8:b1:81:e1:70:c9:dd:69:
        07:f8:81:67:d2:67:f2:2a:b9:31:d2:04:f3:90:a1:5d:82:8c:
        85:42:3e:d8:aa:5e:b6:9f:c1:59:76:a4:8c:ec:a7:7d:96:4d:
        2c:61:e7:be:8d:22:f9:44:41:7d:76:80:6a:24:cc:f6:e2:a3:
        f1:2e:c0:70:83:ce:37:d7:f7:92:8c:9c:62:a7:07:89:a0:cd:
        2e:ee:4e:2c:5f:db:36:3d:27:54:17:ca:a1:85:dd:67:0b:3c:
        32:c7:15:5c:bb:60:35:21:76:49:30:9b:53:d6:ec:c1:c3:c1:
        f5:f6:6b:62:93:c0:2e:76:35:99:fc:1e:0b:82:4f:34:db:94:
        d8:f5:b8:16:2e:d2:21:aa:37:ac:e3:f9:be:8d:f5:26:9e:33:
        de:03:b5:49:97:ad:40:6c:68:4e:5b:4f:f6:0e:ed:f9:13:18:
        c4:8a:6f:01:a8:c2:ec:f2:22:c0:3d:f1:28:46:32:c7:8c:83:
        d3:74:bd:b9:97:fc:cb:b3:f8:e6:41:66:57:05:ac:83:52:6c:
        8c:6e:a6:0b:61:7d:23:ae:8e:86:51:1f:d2:ab:aa:77:5d:ba:
        2e:a4:c1:dc
-----BEGIN CERTIFICATE-----
MIID4zCCAsugAwIBAgIUYRbTYTBzOEdUjHmpjAwqK9geJs4wDQYJKoZIhvcNAQEF
BQAwOTELMAkGA1UEBhMCQVUxFzAVBgNVBAoMDkRvZGd5IEJyb3RoZXJzMREwDwYD
VQQDDAhEb2RneSBDQTAeFw0yMzAyMDYwNzUzMzVaFw0yNDAyMDYwNzUzMzVaMFcx
CzAJBgNVBAYTAkFVMRcwFQYDVQQKDA5Eb2RneSBCcm90aGVyczESMBAGA1UEAwwJ
QnJvdGhlciAxMRswGQYDVQQDDBJsYXN0dXBkYXRlX3V0Y3RpbWUwggEiMA0GCSqG
SIb3DQEBAQUAA4IBDwAwggEKAoIBAQC+lYb6cUxq6lGYUEuZoSxmFfNg8+H/afvO
SAEd/uEsOLDjvY9LSKd+OsZz46u/4dpulvX+w+S0qK28VjTUliV0J8MQ2zUQJRyO
S4Gb+0IEfG894jhsDuQujioYbTDNZyojazfPBZ/Mt1lYf7rECj+MpK3LmJzA8o9p
Zw/BTjPP/IVeu17Pk7DP2fRSeYex+E0VaGXVtxkIY39esTStBY9a8OThjyXyXFxh
lbBWLTErCGV55bE7nT65UkusXcRYZoWNgbMEKPQ/L6ySAWLV/Y4L2gIMesduCRys
HLJM11S4JjOyXxTzsfk9Yk1AmWu254lYl9bUTepLaFLzPKixNYjbAgMBAAGjgcQw
gcEwHQYDVR0OBBYEFKHfM8PPPlNBp2hEzKoZ4YTJDbzGMHQGA1UdIwRtMGuAFLQR
M/HX4l73U54gIhBPhga/H8leoT2kOzA5MQswCQYDVQQGEwJBVTEXMBUGA1UECgwO
RG9kZ3kgQnJvdGhlcnMxETAPBgNVBAMMCERvZGd5IENBghQx4GMpvrRS3iJtA7GF
ImXsfN6IxTASBgNVHRMBAf8ECDAGAQH/AgEBMAsGA1UdDwQEAwIBBjAJBgNVHRIE
AjAAMA0GCSqGSIb3DQEBBQUAA4IBAQApgqLuAVTG/p1UT7Ltbq23/wYRGVQpVvfR
s9I06LGB4XDJ3WkH+IFn0mfyKrkx0gTzkKFdgoyFQj7Yql62n8FZdqSM7Kd9lk0s
Yee+jSL5REF9doBqJMz24qPxLsBwg8431/eSjJxipweJoM0u7k4sX9s2PSdUF8qh
hd1nCzwyxxVcu2A1IXZJMJtT1uzBw8H19mtik8AudjWZ/B4Lgk8025TY9bgWLtIh
qjes4/m+jfUmnjPeA7VJl61AbGhOW0/2Du35ExjEim8BqMLs8iLAPfEoRjLHjIPT
dL25l/zLs/jmQWZXBayDUmyMbqYLYX0jro6GUR/Sq6p3XboupMHc
-----END CERTIFICATE-----
