Certificate:
    Data:
        Version: 3 (0x2)
        Serial Number:
            61:16:d3:61:30:73:38:47:54:8c:79:a9:8c:0c:2a:2b:d8:1e:26:cf
        Signature Algorithm: sha1WithRSAEncryption
        Issuer: C=AU, O=Dodgy Brothers, CN=Dodgy CA
        Validity
            Not Before: Feb  6 07:53:35 2023 GMT
            Not After : Feb  6 07:53:35 2024 GMT
        Subject: C=AU, O=Dodgy Brothers, CN=Brother 1, CN=lastupdate_generalizedtime
        Subject Public Key Info:
            Public Key Algorithm: rsaEncryption
                Public-Key: (2048 bit)
                Modulus:
                    00:be:95:86:fa:71:4c:6a:ea:51:98:50:4b:99:a1:
                    2c:66:15:f3:60:f3:e1:ff:69:fb:ce:48:01:1d:fe:
                    e1:2c:38:b0:e3:bd:8f:4b:48:a7:7e:3a:c6:73:e3:
                    ab:bf:e1:da:6e:96:f5:fe:c3:e4:b4:a8:ad:bc:56:
                    34:d4:96:25:74:27:c3:10:db:35:10:25:1c:8e:4b:
                    81:9b:fb:42:04:7c:6f:3d:e2:38:6c:0e:e4:2e:8e:
                    2a:18:6d:30:cd:67:2a:23:6b:37:cf:05:9f:cc:b7:
                    59:58:7f:ba:c4:0a:3f:8c:a4:ad:cb:98:9c:c0:f2:
                    8f:69:67:0f:c1:4e:33:cf:fc:85:5e:bb:5e:cf:93:
                    b0:cf:d9:f4:52:79:87:b1:f8:4d:15:68:65:d5:b7:
                    19:08:63:7f:5e:b1:34:ad:05:8f:5a:f0:e4:e1:8f:
                    25:f2:5c:5c:61:95:b0:56:2d:31:2b:08:65:79:e5:
                    b1:3b:9d:3e:b9:52:4b:ac:5d:c4:58:66:85:8d:81:
                    b3:04:28:f4:3f:2f:ac:92:01:62:d5:fd:8e:0b:da:
                    02:0c:7a:c7:6e:09:1c:ac:1c:b2:4c:d7:54:b8:26:
                    33:b2:5f:14:f3:b1:f9:3d:62:4d:40:99:6b:b6:e7:
                    89:58:97:d6:d4:4d:ea:4b:68:52:f3:3c:a8:b1:35:
                    88:db
                Exponent: 65537 (0x10001)
        X509v3 extensions:
            X509v3 Subject Key Identifier: 
                A1:DF:33:C3:CF:3E:53:41:A7:68:44:CC:AA:19:E1:84:C9:0D:BC:C6
            X509v3 Authority Key Identifier: 
                keyid:B4:11:33:F1:D7:E2:5E:F7:53:9E:20:22:10:4F:86:06:BF:1F:C9:5E
                DirName:/C=AU/O=Dodgy Brothers/CN=Dodgy CA
                serial:31:E0:63:29:BE:B4:52:DE:22:6D:03:B1:85:22:65:EC:7C:DE:88:C5
            X509v3 Basic Constraints: critical
                CA:TRUE, pathlen:1
            X509v3 Key Usage: 
                Certificate Sign, CRL Sign
            X509v3 Issuer Alternative Name: 
                <EMPTY>

    Signature Algorithm: sha1WithRSAEncryption
    Signature Value:
        5a:05:e3:6d:33:65:92:50:df:2a:5c:3f:f2:fd:f3:b4:c6:fb:
        7f:12:c9:e7:a2:23:22:74:69:ca:2b:15:59:07:4b:62:e8:7c:
        bc:06:7a:26:81:b6:18:2f:b4:52:94:fb:bb:33:4e:30:23:68:
        93:fc:24:15:01:81:1a:28:b3:0f:2e:e8:a6:60:97:f6:79:10:
        a3:d4:7d:72:fe:27:56:29:4b:c6:28:87:3b:e2:54:d9:b7:ee:
        4e:f8:1e:bd:84:22:59:cb:52:2b:e8:55:d6:21:e1:8d:53:aa:
        7e:06:24:c9:93:51:24:d7:4a:6a:10:1d:d3:81:66:34:90:fc:
        d0:11:41:f9:fb:fd:b0:39:e3:eb:30:f8:05:35:c8:69:c5:cb:
        2d:c7:40:e9:93:0c:cd:2f:27:ec:f2:dc:82:a3:3a:43:25:81:
        74:65:6c:24:03:e6:89:58:a7:c1:bd:35:1f:d7:cb:f2:57:84:
        c8:75:9f:b3:0d:76:6d:02:55:d8:a2:4c:74:6c:61:7e:37:5b:
        7d:2a:11:94:5b:ff:e0:8a:73:84:ea:ff:44:8f:76:12:ff:81:
        08:0a:47:61:57:f4:85:68:39:ab:79:0e:40:2b:be:45:de:7a:
        54:9d:ed:6f:e0:fe:f0:1e:b0:50:d7:58:80:82:c6:8c:31:2c:
        f7:a0:c1:52
-----BEGIN CERTIFICATE-----
MIID6zCCAtOgAwIBAgIUYRbTYTBzOEdUjHmpjAwqK9geJs8wDQYJKoZIhvcNAQEF
BQAwOTELMAkGA1UEBhMCQVUxFzAVBgNVBAoMDkRvZGd5IEJyb3RoZXJzMREwDwYD
VQQDDAhEb2RneSBDQTAeFw0yMzAyMDYwNzUzMzVaFw0yNDAyMDYwNzUzMzVaMF8x
CzAJBgNVBAYTAkFVMRcwFQYDVQQKDA5Eb2RneSBCcm90aGVyczESMBAGA1UEAwwJ
QnJvdGhlciAxMSMwIQYDVQQDDBpsYXN0dXBkYXRlX2dlbmVyYWxpemVkdGltZTCC
ASIwDQYJKoZIhvcNAQEBBQADggEPADCCAQoCggEBAL6VhvpxTGrqUZhQS5mhLGYV
82Dz4f9p+85IAR3+4Sw4sOO9j0tIp346xnPjq7/h2m6W9f7D5LSorbxWNNSWJXQn
wxDbNRAlHI5LgZv7QgR8bz3iOGwO5C6OKhhtMM1nKiNrN88Fn8y3WVh/usQKP4yk
rcuYnMDyj2lnD8FOM8/8hV67Xs+TsM/Z9FJ5h7H4TRVoZdW3GQhjf16xNK0Fj1rw
5OGPJfJcXGGVsFYtMSsIZXnlsTudPrlSS6xdxFhmhY2BswQo9D8vrJIBYtX9jgva
Agx6x24JHKwcskzXVLgmM7JfFPOx+T1iTUCZa7bniViX1tRN6ktoUvM8qLE1iNsC
AwEAAaOBxDCBwTAdBgNVHQ4EFgQUod8zw88+U0GnaETMqhnhhMkNvMYwdAYDVR0j
BG0wa4AUtBEz8dfiXvdTniAiEE+GBr8fyV6hPaQ7MDkxCzAJBgNVBAYTAkFVMRcw
FQYDVQQKDA5Eb2RneSBCcm90aGVyczERMA8GA1UEAwwIRG9kZ3kgQ0GCFDHgYym+
tFLeIm0DsYUiZex83ojFMBIGA1UdEwEB/wQIMAYBAf8CAQEwCwYDVR0PBAQDAgEG
MAkGA1UdEgQCMAAwDQYJKoZIhvcNAQEFBQADggEBAFoF420zZZJQ3ypcP/L987TG
+38SyeeiIyJ0acorFVkHS2LofLwGeiaBthgvtFKU+7szTjAjaJP8JBUBgRoosw8u
6KZgl/Z5EKPUfXL+J1YpS8YohzviVNm37k74Hr2EIlnLUivoVdYh4Y1Tqn4GJMmT
USTXSmoQHdOBZjSQ/NARQfn7/bA54+sw+AU1yGnFyy3HQOmTDM0vJ+zy3IKjOkMl
gXRlbCQD5olYp8G9NR/Xy/JXhMh1n7MNdm0CVdiiTHRsYX43W30qEZRb/+CKc4Tq
/0SPdhL/gQgKR2FX9IVoOat5DkArvkXeelSd7W/g/vAesFDXWICCxowxLPegwVI=
-----END CERTIFICATE-----
