Certificate:
    Data:
        Version: 3 (0x2)
        Serial Number:
            61:16:d3:61:30:73:38:47:54:8c:79:a9:8c:0c:2a:2b:d8:1e:26:ca
        Signature Algorithm: sha256WithRSAEncryption
        Issuer: C=AU, O=Dodgy Brothers, CN=Dodgy CA
        Validity
            Not Before: Feb  6 07:53:33 2023 GMT
            Not After : Feb  6 07:53:33 2024 GMT
        Subject: C=AU, O=Dodgy Brothers, CN=Brother 1, CN=Brother 2
        Subject Public Key Info:
            Public Key Algorithm: rsaEncryption
                Public-Key: (2048 bit)
                Modulus:
                    00:a8:ff:89:58:61:85:ae:de:db:2c:0f:d5:73:fb:
                    e2:b7:a8:1b:7a:75:60:2b:d4:7d:3c:73:76:b5:ae:
                    de:93:2f:7f:24:90:6d:c9:1c:f4:8a:38:cd:9f:a2:
                    80:16:56:cb:b4:2c:bb:93:e5:17:1f:ff:0d:c6:43:
                    fe:31:34:f8:28:d8:75:e9:a3:bb:88:82:ef:a3:72:
                    e2:53:62:05:45:4d:e0:31:97:ef:aa:9d:10:d2:58:
                    0d:9e:06:9e:32:bb:1b:08:56:5d:65:0f:3f:66:8e:
                    c2:36:a0:11:ff:c0:59:35:fd:49:1c:dd:1c:42:33:
                    06:78:ae:04:38:23:e5:e7:75:67:d3:94:ad:5a:a9:
                    40:1f:ac:59:10:f5:0c:c1:64:ad:4a:c4:c6:35:53:
                    b3:96:6a:82:1b:15:8b:d1:99:ab:e4:9e:6f:94:aa:
                    d2:96:e5:57:fb:8c:91:64:8a:3c:24:16:c6:d2:19:
                    be:82:60:13:3b:62:b0:ed:3e:1d:b3:ca:f9:6b:df:
                    31:b9:7a:9e:4b:47:68:a7:29:c7:3f:4a:e2:22:27:
                    b4:ef:90:63:d7:ef:d0:72:49:3e:5b:ad:b9:1b:d4:
                    2b:6f:86:68:dd:d5:73:12:b8:43:c9:dc:41:0f:a2:
                    a3:46:4f:8b:67:88:84:0f:61:fe:79:34:1f:4a:89:
                    1f:b7
                Exponent: 65537 (0x10001)
        X509v3 extensions:
            X509v3 Basic Constraints: 
                CA:FALSE
            X509v3 Subject Key Identifier: 
                E7:9B:E2:2A:AD:8A:6C:3A:CB:76:51:E5:8E:07:98:22:97:E1:73:A2
            X509v3 Authority Key Identifier: 
                B4:11:33:F1:D7:E2:5E:F7:53:9E:20:22:10:4F:86:06:BF:1F:C9:5E
    Signature Algorithm: sha256WithRSAEncryption
    Signature Value:
        54:4d:6f:7b:4f:a6:0f:dd:5d:1e:f9:7e:ed:68:e2:4f:a2:15:
        64:e7:33:32:ae:1c:04:5e:6e:f8:6b:fb:e1:f6:4f:42:be:a4:
        c4:fb:9c:65:b2:f2:96:76:1b:1c:94:8d:68:df:45:93:5e:c3:
        66:7a:5e:53:50:70:2f:4f:a2:05:fd:50:bb:95:ab:a0:64:d7:
        b0:3c:7d:46:cb:a0:a4:e5:da:2a:e5:b0:ae:5f:ff:8a:18:4b:
        e9:94:07:97:a9:cd:c1:19:9d:79:a1:bc:84:95:b2:47:a1:d2:
        b8:2f:f3:98:17:3c:4c:9d:e2:66:8c:df:cb:b9:ae:1d:8e:fe:
        1a:4e:0d:30:1d:0d:5e:1d:b3:67:56:82:7f:b7:57:ea:0c:ec:
        8b:92:af:f9:b6:54:26:93:de:df:e8:eb:af:91:8c:4d:fc:fd:
        b0:50:00:30:0c:ad:f4:dd:a8:4c:87:ea:ec:b3:fb:17:87:c3:
        7c:73:e8:cd:d3:03:cd:64:b5:4a:d9:a1:80:6d:96:6a:aa:9c:
        3a:66:7c:47:af:2e:9a:5c:49:ac:2d:c8:6b:bd:1b:31:a6:03:
        60:37:61:40:57:a7:ac:20:a2:4c:c8:86:bd:c3:21:03:2c:ca:
        4a:ef:ee:6f:ec:b4:4b:ea:6b:2d:07:0e:4d:a2:37:a2:1c:37:
        9a:21:b1:5e
-----BEGIN CERTIFICATE-----
MIIDYjCCAkqgAwIBAgIUYRbTYTBzOEdUjHmpjAwqK9geJsowDQYJKoZIhvcNAQEL
BQAwOTELMAkGA1UEBhMCQVUxFzAVBgNVBAoMDkRvZGd5IEJyb3RoZXJzMREwDwYD
VQQDDAhEb2RneSBDQTAeFw0yMzAyMDYwNzUzMzNaFw0yNDAyMDYwNzUzMzNaME4x
CzAJBgNVBAYTAkFVMRcwFQYDVQQKDA5Eb2RneSBCcm90aGVyczESMBAGA1UEAwwJ
QnJvdGhlciAxMRIwEAYDVQQDDAlCcm90aGVyIDIwggEiMA0GCSqGSIb3DQEBAQUA
A4IBDwAwggEKAoIBAQCo/4lYYYWu3tssD9Vz++K3qBt6dWAr1H08c3a1rt6TL38k
kG3JHPSKOM2fooAWVsu0LLuT5Rcf/w3GQ/4xNPgo2HXpo7uIgu+jcuJTYgVFTeAx
l++qnRDSWA2eBp4yuxsIVl1lDz9mjsI2oBH/wFk1/Ukc3RxCMwZ4rgQ4I+XndWfT
lK1aqUAfrFkQ9QzBZK1KxMY1U7OWaoIbFYvRmavknm+UqtKW5Vf7jJFkijwkFsbS
Gb6CYBM7YrDtPh2zyvlr3zG5ep5LR2inKcc/SuIiJ7TvkGPX79ByST5brbkb1Ctv
hmjd1XMSuEPJ3EEPoqNGT4tniIQPYf55NB9KiR+3AgMBAAGjTTBLMAkGA1UdEwQC
MAAwHQYDVR0OBBYEFOeb4iqtimw6y3ZR5Y4HmCKX4XOiMB8GA1UdIwQYMBaAFLQR
M/HX4l73U54gIhBPhga/H8leMA0GCSqGSIb3DQEBCwUAA4IBAQBUTW97T6YP3V0e
+X7taOJPohVk5zMyrhwEXm74a/vh9k9CvqTE+5xlsvKWdhsclI1o30WTXsNmel5T
UHAvT6IF/VC7laugZNewPH1Gy6Ck5doq5bCuX/+KGEvplAeXqc3BGZ15obyElbJH
odK4L/OYFzxMneJmjN/Lua4djv4aTg0wHQ1eHbNnVoJ/t1fqDOyLkq/5tlQmk97f
6OuvkYxN/P2wUAAwDK303ahMh+rss/sXh8N8c+jN0wPNZLVK2aGAbZZqqpw6ZnxH
ry6aXEmsLchrvRsxpgNgN2FAV6esIKJMyIa9wyEDLMpK7+5v7LRL6mstBw5Nojei
HDeaIbFe
-----END CERTIFICATE-----
