Certificate:
    Data:
        Version: 3 (0x2)
        Serial Number:
            61:16:d3:61:30:73:38:47:54:8c:79:a9:8c:0c:2a:2b:d8:1e:26:d3
        Signature Algorithm: sha1WithRSAEncryption
        Issuer: C=AU, O=Dodgy Brothers, CN=Dodgy CA
        Validity
            Not Before: Feb  6 07:53:38 2023 GMT
            Not After : Feb  6 07:53:38 2024 GMT
        Subject: C=AU, O=Dodgy Brothers, CN=Brother 1, CN=both_utctime
        Subject Public Key Info:
            Public Key Algorithm: rsaEncryption
                Public-Key: (2048 bit)
                Modulus:
                    00:be:95:86:fa:71:4c:6a:ea:51:98:50:4b:99:a1:
                    2c:66:15:f3:60:f3:e1:ff:69:fb:ce:48:01:1d:fe:
                    e1:2c:38:b0:e3:bd:8f:4b:48:a7:7e:3a:c6:73:e3:
                    ab:bf:e1:da:6e:96:f5:fe:c3:e4:b4:a8:ad:bc:56:
                    34:d4:96:25:74:27:c3:10:db:35:10:25:1c:8e:4b:
                    81:9b:fb:42:04:7c:6f:3d:e2:38:6c:0e:e4:2e:8e:
                    2a:18:6d:30:cd:67:2a:23:6b:37:cf:05:9f:cc:b7:
                    59:58:7f:ba:c4:0a:3f:8c:a4:ad:cb:98:9c:c0:f2:
                    8f:69:67:0f:c1:4e:33:cf:fc:85:5e:bb:5e:cf:93:
                    b0:cf:d9:f4:52:79:87:b1:f8:4d:15:68:65:d5:b7:
                    19:08:63:7f:5e:b1:34:ad:05:8f:5a:f0:e4:e1:8f:
                    25:f2:5c:5c:61:95:b0:56:2d:31:2b:08:65:79:e5:
                    b1:3b:9d:3e:b9:52:4b:ac:5d:c4:58:66:85:8d:81:
                    b3:04:28:f4:3f:2f:ac:92:01:62:d5:fd:8e:0b:da:
                    02:0c:7a:c7:6e:09:1c:ac:1c:b2:4c:d7:54:b8:26:
                    33:b2:5f:14:f3:b1:f9:3d:62:4d:40:99:6b:b6:e7:
                    89:58:97:d6:d4:4d:ea:4b:68:52:f3:3c:a8:b1:35:
                    88:db
                Exponent: 65537 (0x10001)
        X509v3 extensions:
            X509v3 Subject Key Identifier: 
                A1:DF:33:C3:CF:3E:53:41:A7:68:44:CC:AA:19:E1:84:C9:0D:BC:C6
            X509v3 Authority Key Identifier: 
                keyid:B4:11:33:F1:D7:E2:5E:F7:53:9E:20:22:10:4F:86:06:BF:1F:C9:5E
                DirName:/C=AU/O=Dodgy Brothers/CN=Dodgy CA
                serial:31:E0:63:29:BE:B4:52:DE:22:6D:03:B1:85:22:65:EC:7C:DE:88:C5
            X509v3 Basic Constraints: critical
                CA:TRUE, pathlen:1
            X509v3 Key Usage: 
                Certificate Sign, CRL Sign
            X509v3 Issuer Alternative Name: 
                <EMPTY>

    Signature Algorithm: sha1WithRSAEncryption
    Signature Value:
        00:34:ad:90:9a:9b:2f:65:8a:19:b6:1f:4c:b6:87:1a:ec:d3:
        37:4a:4c:05:dc:1a:b8:e0:48:a1:09:a5:40:04:5a:d8:d2:ea:
        8c:06:a7:76:bd:c0:07:21:1f:4c:c6:9f:a1:12:ac:92:c6:5f:
        8b:03:88:2a:75:c1:1b:55:16:50:a4:29:2d:02:29:b7:33:5f:
        64:8e:79:0d:80:9d:ab:36:05:dd:84:57:30:f2:93:c8:7f:b9:
        61:7a:a3:33:59:31:c5:65:e6:b8:02:3c:34:43:04:13:4d:ff:
        45:58:b3:5f:7f:e2:39:c9:17:83:8c:9c:1e:91:0a:3f:5b:0e:
        fa:bc:33:78:ce:55:31:0c:55:17:ab:3c:b7:34:63:fd:c2:64:
        da:62:b5:b9:72:77:3b:52:bc:a3:ec:1e:cb:13:c0:8a:ea:7d:
        f1:a8:75:a8:45:88:4c:fc:18:0a:51:9e:49:e4:27:45:2a:41:
        1d:8a:f3:dd:fe:e4:0a:d4:03:1a:b3:9c:c4:c9:04:46:18:3f:
        c9:76:40:13:40:28:d5:83:68:46:db:86:59:a7:f1:16:23:74:
        3e:41:85:37:b1:c2:f2:32:1f:76:37:98:ea:9f:cc:4d:73:1f:
        db:9f:ee:95:1d:35:fd:12:4e:5b:89:9a:e6:ea:3f:16:9e:14:
        1f:89:29:da
-----BEGIN CERTIFICATE-----
MIID3TCCAsWgAwIBAgIUYRbTYTBzOEdUjHmpjAwqK9geJtMwDQYJKoZIhvcNAQEF
BQAwOTELMAkGA1UEBhMCQVUxFzAVBgNVBAoMDkRvZGd5IEJyb3RoZXJzMREwDwYD
VQQDDAhEb2RneSBDQTAeFw0yMzAyMDYwNzUzMzhaFw0yNDAyMDYwNzUzMzhaMFEx
CzAJBgNVBAYTAkFVMRcwFQYDVQQKDA5Eb2RneSBCcm90aGVyczESMBAGA1UEAwwJ
QnJvdGhlciAxMRUwEwYDVQQDDAxib3RoX3V0Y3RpbWUwggEiMA0GCSqGSIb3DQEB
AQUAA4IBDwAwggEKAoIBAQC+lYb6cUxq6lGYUEuZoSxmFfNg8+H/afvOSAEd/uEs
OLDjvY9LSKd+OsZz46u/4dpulvX+w+S0qK28VjTUliV0J8MQ2zUQJRyOS4Gb+0IE
fG894jhsDuQujioYbTDNZyojazfPBZ/Mt1lYf7rECj+MpK3LmJzA8o9pZw/BTjPP
/IVeu17Pk7DP2fRSeYex+E0VaGXVtxkIY39esTStBY9a8OThjyXyXFxhlbBWLTEr
CGV55bE7nT65UkusXcRYZoWNgbMEKPQ/L6ySAWLV/Y4L2gIMesduCRysHLJM11S4
JjOyXxTzsfk9Yk1AmWu254lYl9bUTepLaFLzPKixNYjbAgMBAAGjgcQwgcEwHQYD
VR0OBBYEFKHfM8PPPlNBp2hEzKoZ4YTJDbzGMHQGA1UdIwRtMGuAFLQRM/HX4l73
U54gIhBPhga/H8leoT2kOzA5MQswCQYDVQQGEwJBVTEXMBUGA1UECgwORG9kZ3kg
QnJvdGhlcnMxETAPBgNVBAMMCERvZGd5IENBghQx4GMpvrRS3iJtA7GFImXsfN6I
xTASBgNVHRMBAf8ECDAGAQH/AgEBMAsGA1UdDwQEAwIBBjAJBgNVHRIEAjAAMA0G
CSqGSIb3DQEBBQUAA4IBAQAANK2QmpsvZYoZth9Mtoca7NM3SkwF3Bq44EihCaVA
BFrY0uqMBqd2vcAHIR9Mxp+hEqySxl+LA4gqdcEbVRZQpCktAim3M19kjnkNgJ2r
NgXdhFcw8pPIf7lheqMzWTHFZea4Ajw0QwQTTf9FWLNff+I5yReDjJwekQo/Ww76
vDN4zlUxDFUXqzy3NGP9wmTaYrW5cnc7Uryj7B7LE8CK6n3xqHWoRYhM/BgKUZ5J
5CdFKkEdivPd/uQK1AMas5zEyQRGGD/JdkATQCjVg2hG24ZZp/EWI3Q+QYU3scLy
Mh92N5jqn8xNcx/bn+6VHTX9Ek5biZrm6j8WnhQfiSna
-----END CERTIFICATE-----
