Certificate:
    Data:
        Version: 3 (0x2)
        Serial Number:
            61:16:d3:61:30:73:38:47:54:8c:79:a9:8c:0c:2a:2b:d8:1e:26:d4
        Signature Algorithm: sha1WithRSAEncryption
        Issuer: C=AU, O=Dodgy Brothers, CN=Dodgy CA
        Validity
            Not Before: Feb  6 07:53:38 2023 GMT
            Not After : Feb  6 07:53:38 2024 GMT
        Subject: C=AU, O=Dodgy Brothers, CN=Brother 1, CN=both_generalizedtime
        Subject Public Key Info:
            Public Key Algorithm: rsaEncryption
                Public-Key: (2048 bit)
                Modulus:
                    00:be:95:86:fa:71:4c:6a:ea:51:98:50:4b:99:a1:
                    2c:66:15:f3:60:f3:e1:ff:69:fb:ce:48:01:1d:fe:
                    e1:2c:38:b0:e3:bd:8f:4b:48:a7:7e:3a:c6:73:e3:
                    ab:bf:e1:da:6e:96:f5:fe:c3:e4:b4:a8:ad:bc:56:
                    34:d4:96:25:74:27:c3:10:db:35:10:25:1c:8e:4b:
                    81:9b:fb:42:04:7c:6f:3d:e2:38:6c:0e:e4:2e:8e:
                    2a:18:6d:30:cd:67:2a:23:6b:37:cf:05:9f:cc:b7:
                    59:58:7f:ba:c4:0a:3f:8c:a4:ad:cb:98:9c:c0:f2:
                    8f:69:67:0f:c1:4e:33:cf:fc:85:5e:bb:5e:cf:93:
                    b0:cf:d9:f4:52:79:87:b1:f8:4d:15:68:65:d5:b7:
                    19:08:63:7f:5e:b1:34:ad:05:8f:5a:f0:e4:e1:8f:
                    25:f2:5c:5c:61:95:b0:56:2d:31:2b:08:65:79:e5:
                    b1:3b:9d:3e:b9:52:4b:ac:5d:c4:58:66:85:8d:81:
                    b3:04:28:f4:3f:2f:ac:92:01:62:d5:fd:8e:0b:da:
                    02:0c:7a:c7:6e:09:1c:ac:1c:b2:4c:d7:54:b8:26:
                    33:b2:5f:14:f3:b1:f9:3d:62:4d:40:99:6b:b6:e7:
                    89:58:97:d6:d4:4d:ea:4b:68:52:f3:3c:a8:b1:35:
                    88:db
                Exponent: 65537 (0x10001)
        X509v3 extensions:
            X509v3 Subject Key Identifier: 
                A1:DF:33:C3:CF:3E:53:41:A7:68:44:CC:AA:19:E1:84:C9:0D:BC:C6
            X509v3 Authority Key Identifier: 
                keyid:B4:11:33:F1:D7:E2:5E:F7:53:9E:20:22:10:4F:86:06:BF:1F:C9:5E
                DirName:/C=AU/O=Dodgy Brothers/CN=Dodgy CA
                serial:31:E0:63:29:BE:B4:52:DE:22:6D:03:B1:85:22:65:EC:7C:DE:88:C5
            X509v3 Basic Constraints: critical
                CA:TRUE, pathlen:1
            X509v3 Key Usage: 
                Certificate Sign, CRL Sign
            X509v3 Issuer Alternative Name: 
                <EMPTY>

    Signature Algorithm: sha1WithRSAEncryption
    Signature Value:
        4a:88:4c:d1:2b:b0:95:0f:04:1e:8c:d1:2f:22:50:f8:a1:b3:
        04:2c:9d:34:4f:09:2a:70:e1:f9:d5:92:64:ee:b4:fd:8c:a6:
        2e:93:a2:59:d6:05:72:76:8c:df:6c:66:aa:5f:3b:48:73:37:
        94:1e:16:60:b0:08:47:6a:74:b2:8f:57:0a:06:52:51:fb:17:
        31:ed:9f:37:7e:ba:bc:ec:e8:28:fe:86:ef:d7:f0:3a:b7:e0:
        0a:dc:87:22:e4:56:21:77:1f:2c:dd:26:7a:b3:a0:ed:c3:43:
        b5:56:ef:36:e0:8c:00:c7:9d:78:48:2e:d3:46:3e:56:c2:f7:
        39:3c:f6:60:2d:2d:31:cf:2f:18:69:c7:78:7c:70:41:5f:cd:
        06:0b:08:1c:99:6d:f1:7a:30:2d:bd:93:0d:99:54:ce:69:5f:
        19:f8:d3:69:28:e6:bc:80:c9:5c:a2:e1:f3:e5:d5:8a:b9:6b:
        19:fc:a8:7b:8a:27:f8:07:a3:e1:4a:48:f7:44:fa:63:dc:72:
        6e:98:ef:ba:d6:90:20:0c:a4:28:b7:3c:53:79:6b:2e:32:1a:
        4c:fa:f4:ec:5e:23:bf:80:64:80:a2:4c:1f:6b:16:3c:46:70:
        cd:d3:15:67:4f:6d:72:7d:0c:37:db:e4:c0:ff:ef:fe:11:53:
        8f:02:6f:8e
-----BEGIN CERTIFICATE-----
MIID5TCCAs2gAwIBAgIUYRbTYTBzOEdUjHmpjAwqK9geJtQwDQYJKoZIhvcNAQEF
BQAwOTELMAkGA1UEBhMCQVUxFzAVBgNVBAoMDkRvZGd5IEJyb3RoZXJzMREwDwYD
VQQDDAhEb2RneSBDQTAeFw0yMzAyMDYwNzUzMzhaFw0yNDAyMDYwNzUzMzhaMFkx
CzAJBgNVBAYTAkFVMRcwFQYDVQQKDA5Eb2RneSBCcm90aGVyczESMBAGA1UEAwwJ
QnJvdGhlciAxMR0wGwYDVQQDDBRib3RoX2dlbmVyYWxpemVkdGltZTCCASIwDQYJ
KoZIhvcNAQEBBQADggEPADCCAQoCggEBAL6VhvpxTGrqUZhQS5mhLGYV82Dz4f9p
+85IAR3+4Sw4sOO9j0tIp346xnPjq7/h2m6W9f7D5LSorbxWNNSWJXQnwxDbNRAl
HI5LgZv7QgR8bz3iOGwO5C6OKhhtMM1nKiNrN88Fn8y3WVh/usQKP4ykrcuYnMDy
j2lnD8FOM8/8hV67Xs+TsM/Z9FJ5h7H4TRVoZdW3GQhjf16xNK0Fj1rw5OGPJfJc
XGGVsFYtMSsIZXnlsTudPrlSS6xdxFhmhY2BswQo9D8vrJIBYtX9jgvaAgx6x24J
HKwcskzXVLgmM7JfFPOx+T1iTUCZa7bniViX1tRN6ktoUvM8qLE1iNsCAwEAAaOB
xDCBwTAdBgNVHQ4EFgQUod8zw88+U0GnaETMqhnhhMkNvMYwdAYDVR0jBG0wa4AU
tBEz8dfiXvdTniAiEE+GBr8fyV6hPaQ7MDkxCzAJBgNVBAYTAkFVMRcwFQYDVQQK
DA5Eb2RneSBCcm90aGVyczERMA8GA1UEAwwIRG9kZ3kgQ0GCFDHgYym+tFLeIm0D
sYUiZex83ojFMBIGA1UdEwEB/wQIMAYBAf8CAQEwCwYDVR0PBAQDAgEGMAkGA1Ud
EgQCMAAwDQYJKoZIhvcNAQEFBQADggEBAEqITNErsJUPBB6M0S8iUPihswQsnTRP
CSpw4fnVkmTutP2Mpi6TolnWBXJ2jN9sZqpfO0hzN5QeFmCwCEdqdLKPVwoGUlH7
FzHtnzd+urzs6Cj+hu/X8Dq34ArchyLkViF3HyzdJnqzoO3DQ7VW7zbgjADHnXhI
LtNGPlbC9zk89mAtLTHPLxhpx3h8cEFfzQYLCByZbfF6MC29kw2ZVM5pXxn402ko
5ryAyVyi4fPl1Yq5axn8qHuKJ/gHo+FKSPdE+mPccm6Y77rWkCAMpCi3PFN5ay4y
Gkz69OxeI7+AZICiTB9rFjxGcM3TFWdPbXJ9DDfb5MD/7/4RU48Cb44=
-----END CERTIFICATE-----
