Certificate:
    Data:
        Version: 3 (0x2)
        Serial Number:
            61:16:d3:61:30:73:38:47:54:8c:79:a9:8c:0c:2a:2b:d8:1e:26:d2
        Signature Algorithm: sha1WithRSAEncryption
        Issuer: C=AU, O=Dodgy Brothers, CN=Dodgy CA
        Validity
            Not Before: Feb  6 07:53:37 2023 GMT
            Not After : Feb  6 07:53:37 2024 GMT
        Subject: C=AU, O=Dodgy Brothers, CN=Brother 1, CN=nextupdate_generalizedtime
        Subject Public Key Info:
            Public Key Algorithm: rsaEncryption
                Public-Key: (2048 bit)
                Modulus:
                    00:be:95:86:fa:71:4c:6a:ea:51:98:50:4b:99:a1:
                    2c:66:15:f3:60:f3:e1:ff:69:fb:ce:48:01:1d:fe:
                    e1:2c:38:b0:e3:bd:8f:4b:48:a7:7e:3a:c6:73:e3:
                    ab:bf:e1:da:6e:96:f5:fe:c3:e4:b4:a8:ad:bc:56:
                    34:d4:96:25:74:27:c3:10:db:35:10:25:1c:8e:4b:
                    81:9b:fb:42:04:7c:6f:3d:e2:38:6c:0e:e4:2e:8e:
                    2a:18:6d:30:cd:67:2a:23:6b:37:cf:05:9f:cc:b7:
                    59:58:7f:ba:c4:0a:3f:8c:a4:ad:cb:98:9c:c0:f2:
                    8f:69:67:0f:c1:4e:33:cf:fc:85:5e:bb:5e:cf:93:
                    b0:cf:d9:f4:52:79:87:b1:f8:4d:15:68:65:d5:b7:
                    19:08:63:7f:5e:b1:34:ad:05:8f:5a:f0:e4:e1:8f:
                    25:f2:5c:5c:61:95:b0:56:2d:31:2b:08:65:79:e5:
                    b1:3b:9d:3e:b9:52:4b:ac:5d:c4:58:66:85:8d:81:
                    b3:04:28:f4:3f:2f:ac:92:01:62:d5:fd:8e:0b:da:
                    02:0c:7a:c7:6e:09:1c:ac:1c:b2:4c:d7:54:b8:26:
                    33:b2:5f:14:f3:b1:f9:3d:62:4d:40:99:6b:b6:e7:
                    89:58:97:d6:d4:4d:ea:4b:68:52:f3:3c:a8:b1:35:
                    88:db
                Exponent: 65537 (0x10001)
        X509v3 extensions:
            X509v3 Subject Key Identifier: 
                A1:DF:33:C3:CF:3E:53:41:A7:68:44:CC:AA:19:E1:84:C9:0D:BC:C6
            X509v3 Authority Key Identifier: 
                keyid:B4:11:33:F1:D7:E2:5E:F7:53:9E:20:22:10:4F:86:06:BF:1F:C9:5E
                DirName:/C=AU/O=Dodgy Brothers/CN=Dodgy CA
                serial:31:E0:63:29:BE:B4:52:DE:22:6D:03:B1:85:22:65:EC:7C:DE:88:C5
            X509v3 Basic Constraints: critical
                CA:TRUE, pathlen:1
            X509v3 Key Usage: 
                Certificate Sign, CRL Sign
            X509v3 Issuer Alternative Name: 
                <EMPTY>

    Signature Algorithm: sha1WithRSAEncryption
    Signature Value:
        67:1f:86:76:73:3c:de:aa:2f:93:7d:38:e8:20:9e:76:4f:cb:
        35:60:23:5f:6b:4b:d7:ea:48:a0:d6:b4:4e:ef:8b:7b:0d:4f:
        c6:8f:e9:50:6d:e3:80:f5:5a:80:ab:db:2a:62:2c:3a:fc:c7:
        9b:b3:91:5a:d3:d5:7f:b2:ac:6b:a3:57:f0:4e:98:70:74:8c:
        41:2b:cd:d8:eb:6a:5b:11:f0:e9:7e:95:0c:30:23:4b:68:4d:
        8b:71:84:8a:f6:a1:0e:2a:c2:2f:ab:bd:19:38:3e:9d:85:af:
        9d:66:ad:4f:3d:ac:62:9a:c2:71:b8:3a:25:01:1d:eb:db:36:
        10:c4:ae:f5:fa:c9:01:33:82:1b:ad:71:fa:6e:2d:b6:4a:b0:
        7c:21:c6:f2:4b:25:dc:9d:d3:40:7c:07:fa:f1:39:b5:44:6d:
        09:c8:3e:02:3d:9d:ea:32:3e:53:c6:a5:d4:f1:fd:a4:62:49:
        2d:79:75:cc:f2:b5:58:91:79:32:76:2a:af:e5:c0:49:a5:dc:
        c2:d7:93:2f:11:9f:c5:f1:e6:b4:08:2c:75:7e:d5:f5:63:36:
        05:aa:dc:bd:d3:3b:b1:f0:6d:ab:75:30:cd:51:b1:8b:b5:9b:
        f2:56:dc:40:2a:cc:e7:1f:b8:cf:7a:37:08:d9:38:48:bb:66:
        e4:ac:b5:b2
-----BEGIN CERTIFICATE-----
MIID6zCCAtOgAwIBAgIUYRbTYTBzOEdUjHmpjAwqK9geJtIwDQYJKoZIhvcNAQEF
BQAwOTELMAkGA1UEBhMCQVUxFzAVBgNVBAoMDkRvZGd5IEJyb3RoZXJzMREwDwYD
VQQDDAhEb2RneSBDQTAeFw0yMzAyMDYwNzUzMzdaFw0yNDAyMDYwNzUzMzdaMF8x
CzAJBgNVBAYTAkFVMRcwFQYDVQQKDA5Eb2RneSBCcm90aGVyczESMBAGA1UEAwwJ
QnJvdGhlciAxMSMwIQYDVQQDDBpuZXh0dXBkYXRlX2dlbmVyYWxpemVkdGltZTCC
ASIwDQYJKoZIhvcNAQEBBQADggEPADCCAQoCggEBAL6VhvpxTGrqUZhQS5mhLGYV
82Dz4f9p+85IAR3+4Sw4sOO9j0tIp346xnPjq7/h2m6W9f7D5LSorbxWNNSWJXQn
wxDbNRAlHI5LgZv7QgR8bz3iOGwO5C6OKhhtMM1nKiNrN88Fn8y3WVh/usQKP4yk
rcuYnMDyj2lnD8FOM8/8hV67Xs+TsM/Z9FJ5h7H4TRVoZdW3GQhjf16xNK0Fj1rw
5OGPJfJcXGGVsFYtMSsIZXnlsTudPrlSS6xdxFhmhY2BswQo9D8vrJIBYtX9jgva
Agx6x24JHKwcskzXVLgmM7JfFPOx+T1iTUCZa7bniViX1tRN6ktoUvM8qLE1iNsC
AwEAAaOBxDCBwTAdBgNVHQ4EFgQUod8zw88+U0GnaETMqhnhhMkNvMYwdAYDVR0j
BG0wa4AUtBEz8dfiXvdTniAiEE+GBr8fyV6hPaQ7MDkxCzAJBgNVBAYTAkFVMRcw
FQYDVQQKDA5Eb2RneSBCcm90aGVyczERMA8GA1UEAwwIRG9kZ3kgQ0GCFDHgYym+
tFLeIm0DsYUiZex83ojFMBIGA1UdEwEB/wQIMAYBAf8CAQEwCwYDVR0PBAQDAgEG
MAkGA1UdEgQCMAAwDQYJKoZIhvcNAQEFBQADggEBAGcfhnZzPN6qL5N9OOggnnZP
yzVgI19rS9fqSKDWtE7vi3sNT8aP6VBt44D1WoCr2ypiLDr8x5uzkVrT1X+yrGuj
V/BOmHB0jEErzdjralsR8Ol+lQwwI0toTYtxhIr2oQ4qwi+rvRk4Pp2Fr51mrU89
rGKawnG4OiUBHevbNhDErvX6yQEzghutcfpuLbZKsHwhxvJLJdyd00B8B/rxObVE
bQnIPgI9neoyPlPGpdTx/aRiSS15dczytViReTJ2Kq/lwEml3MLXky8Rn8Xx5rQI
LHV+1fVjNgWq3L3TO7Hwbat1MM1RsYu1m/JW3EAqzOcfuM96NwjZOEi7ZuSstbI=
-----END CERTIFICATE-----
