Certificate:
    Data:
        Version: 3 (0x2)
        Serial Number:
            61:16:d3:61:30:73:38:47:54:8c:79:a9:8c:0c:2a:2b:d8:1e:26:d1
        Signature Algorithm: sha1WithRSAEncryption
        Issuer: C=AU, O=Dodgy Brothers, CN=Dodgy CA
        Validity
            Not Before: Feb  6 07:53:37 2023 GMT
            Not After : Feb  6 07:53:37 2024 GMT
        Subject: C=AU, O=Dodgy Brothers, CN=Brother 1, CN=nextupdate_utctime
        Subject Public Key Info:
            Public Key Algorithm: rsaEncryption
                Public-Key: (2048 bit)
                Modulus:
                    00:be:95:86:fa:71:4c:6a:ea:51:98:50:4b:99:a1:
                    2c:66:15:f3:60:f3:e1:ff:69:fb:ce:48:01:1d:fe:
                    e1:2c:38:b0:e3:bd:8f:4b:48:a7:7e:3a:c6:73:e3:
                    ab:bf:e1:da:6e:96:f5:fe:c3:e4:b4:a8:ad:bc:56:
                    34:d4:96:25:74:27:c3:10:db:35:10:25:1c:8e:4b:
                    81:9b:fb:42:04:7c:6f:3d:e2:38:6c:0e:e4:2e:8e:
                    2a:18:6d:30:cd:67:2a:23:6b:37:cf:05:9f:cc:b7:
                    59:58:7f:ba:c4:0a:3f:8c:a4:ad:cb:98:9c:c0:f2:
                    8f:69:67:0f:c1:4e:33:cf:fc:85:5e:bb:5e:cf:93:
                    b0:cf:d9:f4:52:79:87:b1:f8:4d:15:68:65:d5:b7:
                    19:08:63:7f:5e:b1:34:ad:05:8f:5a:f0:e4:e1:8f:
                    25:f2:5c:5c:61:95:b0:56:2d:31:2b:08:65:79:e5:
                    b1:3b:9d:3e:b9:52:4b:ac:5d:c4:58:66:85:8d:81:
                    b3:04:28:f4:3f:2f:ac:92:01:62:d5:fd:8e:0b:da:
                    02:0c:7a:c7:6e:09:1c:ac:1c:b2:4c:d7:54:b8:26:
                    33:b2:5f:14:f3:b1:f9:3d:62:4d:40:99:6b:b6:e7:
                    89:58:97:d6:d4:4d:ea:4b:68:52:f3:3c:a8:b1:35:
                    88:db
                Exponent: 65537 (0x10001)
        X509v3 extensions:
            X509v3 Subject Key Identifier: 
                A1:DF:33:C3:CF:3E:53:41:A7:68:44:CC:AA:19:E1:84:C9:0D:BC:C6
            X509v3 Authority Key Identifier: 
                keyid:B4:11:33:F1:D7:E2:5E:F7:53:9E:20:22:10:4F:86:06:BF:1F:C9:5E
                DirName:/C=AU/O=Dodgy Brothers/CN=Dodgy CA
                serial:31:E0:63:29:BE:B4:52:DE:22:6D:03:B1:85:22:65:EC:7C:DE:88:C5
            X509v3 Basic Constraints: critical
                CA:TRUE, pathlen:1
            X509v3 Key Usage: 
                Certificate Sign, CRL Sign
            X509v3 Issuer Alternative Name: 
                <EMPTY>

    Signature Algorithm: sha1WithRSAEncryption
    Signature Value:
        13:bd:47:14:b5:21:44:41:96:6e:0d:91:2b:70:3f:8a:30:e1:
        84:d2:7f:d3:5e:52:3d:81:30:72:05:71:b1:a0:57:c1:d6:e5:
        1f:41:0f:d0:87:f2:f5:4c:56:13:1c:35:e3:bc:be:e1:86:f2:
        b5:be:ea:39:e6:10:4d:f0:1d:17:a1:ed:b8:9e:3e:b0:0c:9e:
        22:d7:a6:35:51:bf:47:19:84:8d:5a:23:2a:bd:27:92:91:ff:
        3a:45:46:d9:65:1a:16:5f:59:9a:ae:e4:63:f1:08:cd:f7:bc:
        5a:74:89:d7:1c:76:b5:2f:8b:de:71:11:d5:8a:07:07:bc:75:
        7e:a9:1d:11:da:ea:75:17:d8:be:ee:0a:33:6f:00:1f:df:84:
        f2:08:82:ef:75:bc:13:04:56:7f:50:ba:d4:b0:8f:d9:4d:32:
        76:1f:8a:b8:fd:e0:bb:9c:26:06:f4:44:3b:c0:c8:a1:2e:4e:
        4a:fa:96:77:58:26:be:6e:45:ab:f4:d8:76:b0:40:19:0c:b8:
        73:f4:39:a7:c4:42:c7:62:b8:13:42:d9:ac:b2:fc:67:5f:40:
        cd:3a:ca:66:00:b0:be:3d:df:9a:ed:cf:ec:23:c3:14:2e:df:
        e8:17:b0:22:4f:ef:e6:fa:52:1c:0d:0b:cb:b9:b9:77:b7:ef:
        80:62:e7:92
-----BEGIN CERTIFICATE-----
MIID4zCCAsugAwIBAgIUYRbTYTBzOEdUjHmpjAwqK9geJtEwDQYJKoZIhvcNAQEF
BQAwOTELMAkGA1UEBhMCQVUxFzAVBgNVBAoMDkRvZGd5IEJyb3RoZXJzMREwDwYD
VQQDDAhEb2RneSBDQTAeFw0yMzAyMDYwNzUzMzdaFw0yNDAyMDYwNzUzMzdaMFcx
CzAJBgNVBAYTAkFVMRcwFQYDVQQKDA5Eb2RneSBCcm90aGVyczESMBAGA1UEAwwJ
QnJvdGhlciAxMRswGQYDVQQDDBJuZXh0dXBkYXRlX3V0Y3RpbWUwggEiMA0GCSqG
SIb3DQEBAQUAA4IBDwAwggEKAoIBAQC+lYb6cUxq6lGYUEuZoSxmFfNg8+H/afvO
SAEd/uEsOLDjvY9LSKd+OsZz46u/4dpulvX+w+S0qK28VjTUliV0J8MQ2zUQJRyO
S4Gb+0IEfG894jhsDuQujioYbTDNZyojazfPBZ/Mt1lYf7rECj+MpK3LmJzA8o9p
Zw/BTjPP/IVeu17Pk7DP2fRSeYex+E0VaGXVtxkIY39esTStBY9a8OThjyXyXFxh
lbBWLTErCGV55bE7nT65UkusXcRYZoWNgbMEKPQ/L6ySAWLV/Y4L2gIMesduCRys
HLJM11S4JjOyXxTzsfk9Yk1AmWu254lYl9bUTepLaFLzPKixNYjbAgMBAAGjgcQw
gcEwHQYDVR0OBBYEFKHfM8PPPlNBp2hEzKoZ4YTJDbzGMHQGA1UdIwRtMGuAFLQR
M/HX4l73U54gIhBPhga/H8leoT2kOzA5MQswCQYDVQQGEwJBVTEXMBUGA1UECgwO
RG9kZ3kgQnJvdGhlcnMxETAPBgNVBAMMCERvZGd5IENBghQx4GMpvrRS3iJtA7GF
ImXsfN6IxTASBgNVHRMBAf8ECDAGAQH/AgEBMAsGA1UdDwQEAwIBBjAJBgNVHRIE
AjAAMA0GCSqGSIb3DQEBBQUAA4IBAQATvUcUtSFEQZZuDZErcD+KMOGE0n/TXlI9
gTByBXGxoFfB1uUfQQ/Qh/L1TFYTHDXjvL7hhvK1vuo55hBN8B0Xoe24nj6wDJ4i
16Y1Ub9HGYSNWiMqvSeSkf86RUbZZRoWX1maruRj8QjN97xadInXHHa1L4vecRHV
igcHvHV+qR0R2up1F9i+7gozbwAf34TyCILvdbwTBFZ/ULrUsI/ZTTJ2H4q4/eC7
nCYG9EQ7wMihLk5K+pZ3WCa+bkWr9Nh2sEAZDLhz9DmnxELHYrgTQtmssvxnX0DN
OspmALC+Pd+a7c/sI8MULt/oF7AiT+/m+lIcDQvLubl3t++AYueS
-----END CERTIFICATE-----
