Certificate:
    Data:
        Version: 3 (0x2)
        Serial Number:
            61:16:d3:61:30:73:38:47:54:8c:79:a9:8c:0c:2a:2b:d8:1e:26:cc
        Signature Algorithm: sha1WithRSAEncryption
        Issuer: C=AU, O=Dodgy Brothers, CN=Dodgy CA
        Validity
            Not Before: Feb  6 07:53:34 2023 GMT
            Not After : Feb  6 07:53:34 2024 GMT
        Subject: C=AU, O=Dodgy Brothers, CN=Brother 1, CN=notimes
        Subject Public Key Info:
            Public Key Algorithm: rsaEncryption
                Public-Key: (2048 bit)
                Modulus:
                    00:be:95:86:fa:71:4c:6a:ea:51:98:50:4b:99:a1:
                    2c:66:15:f3:60:f3:e1:ff:69:fb:ce:48:01:1d:fe:
                    e1:2c:38:b0:e3:bd:8f:4b:48:a7:7e:3a:c6:73:e3:
                    ab:bf:e1:da:6e:96:f5:fe:c3:e4:b4:a8:ad:bc:56:
                    34:d4:96:25:74:27:c3:10:db:35:10:25:1c:8e:4b:
                    81:9b:fb:42:04:7c:6f:3d:e2:38:6c:0e:e4:2e:8e:
                    2a:18:6d:30:cd:67:2a:23:6b:37:cf:05:9f:cc:b7:
                    59:58:7f:ba:c4:0a:3f:8c:a4:ad:cb:98:9c:c0:f2:
                    8f:69:67:0f:c1:4e:33:cf:fc:85:5e:bb:5e:cf:93:
                    b0:cf:d9:f4:52:79:87:b1:f8:4d:15:68:65:d5:b7:
                    19:08:63:7f:5e:b1:34:ad:05:8f:5a:f0:e4:e1:8f:
                    25:f2:5c:5c:61:95:b0:56:2d:31:2b:08:65:79:e5:
                    b1:3b:9d:3e:b9:52:4b:ac:5d:c4:58:66:85:8d:81:
                    b3:04:28:f4:3f:2f:ac:92:01:62:d5:fd:8e:0b:da:
                    02:0c:7a:c7:6e:09:1c:ac:1c:b2:4c:d7:54:b8:26:
                    33:b2:5f:14:f3:b1:f9:3d:62:4d:40:99:6b:b6:e7:
                    89:58:97:d6:d4:4d:ea:4b:68:52:f3:3c:a8:b1:35:
                    88:db
                Exponent: 65537 (0x10001)
        X509v3 extensions:
            X509v3 Subject Key Identifier: 
                A1:DF:33:C3:CF:3E:53:41:A7:68:44:CC:AA:19:E1:84:C9:0D:BC:C6
            X509v3 Authority Key Identifier: 
                keyid:B4:11:33:F1:D7:E2:5E:F7:53:9E:20:22:10:4F:86:06:BF:1F:C9:5E
                DirName:/C=AU/O=Dodgy Brothers/CN=Dodgy CA
                serial:31:E0:63:29:BE:B4:52:DE:22:6D:03:B1:85:22:65:EC:7C:DE:88:C5
            X509v3 Basic Constraints: critical
                CA:TRUE, pathlen:1
            X509v3 Key Usage: 
                Certificate Sign, CRL Sign
            X509v3 Issuer Alternative Name: 
                <EMPTY>

    Signature Algorithm: sha1WithRSAEncryption
    Signature Value:
        19:36:0e:5f:06:35:66:b7:dd:9b:39:a6:e0:10:cd:50:33:98:
        3c:57:e5:c5:b4:e7:51:67:17:1c:cd:b4:82:45:31:ab:b4:0b:
        48:f2:6b:43:33:41:71:32:46:7d:a5:de:a6:20:11:74:24:8c:
        de:91:0e:73:29:c3:e6:ff:f4:76:e8:23:5a:57:a1:8d:6f:3a:
        31:5d:d8:d4:ee:a2:3d:94:5f:b4:cf:cc:8b:df:5d:9d:7e:1e:
        5d:bc:c0:c2:2f:e0:b0:e9:89:9e:a6:fa:60:0a:e0:b9:ad:96:
        c1:bf:b9:67:8d:e9:b2:17:71:0b:1f:70:58:2d:c1:dc:b0:e8:
        80:9b:b5:f0:dc:52:25:4e:c0:a5:0f:26:33:ad:bf:02:dc:1e:
        60:80:ed:87:66:b4:12:34:47:66:93:02:72:45:27:6a:8f:d5:
        31:90:3b:8e:53:01:57:28:6f:9c:a0:aa:ac:66:9e:94:50:77:
        90:f4:70:2f:61:03:48:af:3e:70:fa:94:e1:80:51:e7:96:19:
        f6:69:01:10:ee:f5:7f:25:92:4b:9c:ab:6b:25:7f:22:ac:01:
        6f:9f:ef:5f:25:2b:e0:0c:34:47:5a:32:58:7b:87:48:49:b9:
        b1:32:5a:8e:60:d7:6b:62:cc:ce:6e:e7:c6:a0:bd:78:98:80:
        63:72:8b:a0
-----BEGIN CERTIFICATE-----
MIID2DCCAsCgAwIBAgIUYRbTYTBzOEdUjHmpjAwqK9geJswwDQYJKoZIhvcNAQEF
BQAwOTELMAkGA1UEBhMCQVUxFzAVBgNVBAoMDkRvZGd5IEJyb3RoZXJzMREwDwYD
VQQDDAhEb2RneSBDQTAeFw0yMzAyMDYwNzUzMzRaFw0yNDAyMDYwNzUzMzRaMEwx
CzAJBgNVBAYTAkFVMRcwFQYDVQQKDA5Eb2RneSBCcm90aGVyczESMBAGA1UEAwwJ
QnJvdGhlciAxMRAwDgYDVQQDDAdub3RpbWVzMIIBIjANBgkqhkiG9w0BAQEFAAOC
AQ8AMIIBCgKCAQEAvpWG+nFMaupRmFBLmaEsZhXzYPPh/2n7zkgBHf7hLDiw472P
S0infjrGc+Orv+Habpb1/sPktKitvFY01JYldCfDENs1ECUcjkuBm/tCBHxvPeI4
bA7kLo4qGG0wzWcqI2s3zwWfzLdZWH+6xAo/jKSty5icwPKPaWcPwU4zz/yFXrte
z5Owz9n0UnmHsfhNFWhl1bcZCGN/XrE0rQWPWvDk4Y8l8lxcYZWwVi0xKwhleeWx
O50+uVJLrF3EWGaFjYGzBCj0Py+skgFi1f2OC9oCDHrHbgkcrByyTNdUuCYzsl8U
87H5PWJNQJlrtueJWJfW1E3qS2hS8zyosTWI2wIDAQABo4HEMIHBMB0GA1UdDgQW
BBSh3zPDzz5TQadoRMyqGeGEyQ28xjB0BgNVHSMEbTBrgBS0ETPx1+Je91OeICIQ
T4YGvx/JXqE9pDswOTELMAkGA1UEBhMCQVUxFzAVBgNVBAoMDkRvZGd5IEJyb3Ro
ZXJzMREwDwYDVQQDDAhEb2RneSBDQYIUMeBjKb60Ut4ibQOxhSJl7HzeiMUwEgYD
VR0TAQH/BAgwBgEB/wIBATALBgNVHQ8EBAMCAQYwCQYDVR0SBAIwADANBgkqhkiG
9w0BAQUFAAOCAQEAGTYOXwY1Zrfdmzmm4BDNUDOYPFflxbTnUWcXHM20gkUxq7QL
SPJrQzNBcTJGfaXepiARdCSM3pEOcynD5v/0dugjWlehjW86MV3Y1O6iPZRftM/M
i99dnX4eXbzAwi/gsOmJnqb6YArgua2Wwb+5Z43pshdxCx9wWC3B3LDogJu18NxS
JU7ApQ8mM62/AtweYIDth2a0EjRHZpMCckUnao/VMZA7jlMBVyhvnKCqrGaelFB3
kPRwL2EDSK8+cPqU4YBR55YZ9mkBEO71fyWSS5yrayV/IqwBb5/vXyUr4Aw0R1oy
WHuHSEm5sTJajmDXa2LMzm7nxqC9eJiAY3KLoA==
-----END CERTIFICATE-----
