Certificate:
    Data:
        Version: 3 (0x2)
        Serial Number: 1234567890 (0x499602d2)
        Signature Algorithm: sha256WithRSAEncryption
        Issuer: CN = ca.example.com
        Validity
            Not Before: Feb  6 07:47:35 2023 GMT
            Not After : Feb  6 07:47:35 2024 GMT
        Subject: CN = test.example.com
        Subject Public Key Info:
            Public Key Algorithm: rsaEncryption
                Public-Key: (2048 bit)
                Modulus:
                    00:be:47:35:ad:5c:52:3b:20:a0:d4:75:fb:f8:98:
                    a4:23:da:40:6a:0d:e4:8a:3f:25:8e:7f:fb:a0:cb:
                    4e:06:12:8c:2a:b9:9e:b2:8d:b6:66:b0:3b:e8:49:
                    60:ac:cb:00:18:9c:65:7f:90:0e:88:53:5c:c9:fa:
                    a9:e4:d5:56:26:d1:a3:44:47:37:d9:23:01:0f:bd:
                    68:e9:cd:ca:7c:cf:ac:8c:4b:53:ca:61:2a:a0:7f:
                    27:25:fc:7b:7a:72:b2:c0:78:94:a2:e3:9c:53:0c:
                    81:9b:b9:b5:ad:81:0b:df:a0:0b:39:55:42:6f:cd:
                    22:79:45:1f:5b:bd:ed:44:c3:a1:67:64:3b:90:03:
                    f7:a2:37:b3:be:c2:54:f9:e1:62:36:ce:b1:6a:54:
                    f4:1b:6b:15:42:23:fb:64:b6:76:f4:e9:6b:44:ff:
                    f3:c6:9b:52:5f:d5:f5:d9:68:98:70:41:4d:8e:86:
                    36:54:74:d2:bc:6b:fb:84:c5:be:bc:10:df:ce:12:
                    92:3b:c6:b8:dd:26:45:ca:05:54:d6:6d:2c:f1:3b:
                    4f:10:3a:d9:4a:f3:2d:69:cb:b5:fc:55:d7:f3:ea:
                    de:0d:5f:6a:d4:7f:48:2f:f3:8a:c1:f4:9f:7a:98:
                    f3:27:b7:8a:e5:dd:cd:66:cb:93:25:ac:a3:ea:43:
                    3b:15
                Exponent: 65537 (0x10001)
        X509v3 extensions:
            X509v3 Subject Key Identifier: 
                14:F9:CC:F2:F1:5B:B0:A1:B4:3A:2B:7C:36:12:AE:D4:86:43:42:37
            X509v3 Authority Key Identifier: 
                14:F9:CC:F2:F1:5B:B0:A1:B4:3A:2B:7C:36:12:AE:D4:86:43:42:37
            X509v3 Basic Constraints: critical
                CA:TRUE
    Signature Algorithm: sha256WithRSAEncryption
    Signature Value:
        37:88:05:cc:c9:30:49:ef:0b:f9:ea:a1:31:4c:df:eb:fa:2e:
        4e:b9:f2:4d:35:e4:eb:b9:c3:35:e9:1e:db:8f:91:56:91:26:
        5e:07:0e:78:e4:b3:d6:53:bd:bf:0f:da:4f:0d:fe:99:9d:d2:
        7e:52:b2:1e:75:fb:0b:8b:56:0b:e5:68:cc:64:d6:42:83:33:
        c2:7d:91:a0:6b:69:41:5f:52:8f:17:4a:c2:98:5e:5b:a0:56:
        e6:3d:c9:26:fc:00:37:3b:dc:be:cc:94:48:63:36:7e:b0:82:
        4f:49:fa:36:a1:79:13:07:6e:fb:d4:20:7b:09:a6:78:77:6f:
        58:a4:08:5d:75:fb:dc:38:d6:e6:f3:a7:95:36:2f:bb:1c:82:
        27:d0:4f:f6:ea:a2:4c:78:6d:bf:33:13:53:85:3e:8c:29:7c:
        23:f0:b0:83:eb:16:da:4c:86:34:10:72:90:d5:3b:7f:ca:fe:
        84:c2:1e:b4:70:b5:3a:8c:d5:02:35:77:9b:f8:2f:5f:72:aa:
        ea:40:07:1b:f3:88:4b:ea:4f:36:0b:2b:cc:47:42:f4:75:a3:
        76:97:4b:75:fc:36:2d:da:23:ed:15:42:47:03:5c:b1:a8:5f:
        2b:62:52:e1:27:5c:1f:eb:78:f8:54:96:42:98:03:1f:49:ee:
        55:a8:6d:1a:ef:0d:1b:ff:99:dd:41:14:3f:a0:8d:b6:47:0f:
        da:b5:20:27:33:79:5b:7a:d7:5b:3f:4f:e8:bc:63:11:a2:26:
        c0:75:98:47:9b:3e:d3:0c:61:43:ce:f2:ca:8c:1f:50:8a:72:
        50:96:6f:81:7c:21:a1:44:56:04:02:47:90:a1:2a:75:38:e2:
        6a:dd:41:70:cf:fd:13:79:d0:41:67:e2:b1:53:87:f5:07:61:
        8a:53:41:30:5b:0c:4e:69:2e:56:60:91:94:b7:e4:12:19:bf:
        6e:2b:96:c2:38:5b:13:d2:29:e4:e4:93:c3:1a:4d:f7:6a:7c:
        12:04:28:2e:67:41:87:a4:3a:d7:37:eb:f4:44:94:74:e7:e2:
        ed:19:c4:0b:5c:52:0f:d6:cf:98:2d:ce:d6:44:fe:77:8e:fd:
        71:ea:8c:b9:34:ff:80:e3:f2:db:79:ac:c3:ec:b5:1d:9e:06:
        77:ad:50:c5:f5:e1:74:9c:29:7c:bb:e5:ee:a0:2a:44:b2:30:
        e5:84:a0:26:33:7c:d7:bb:98:98:0f:0b:13:02:d5:1a:b6:82:
        4e:86:7f:48:14:a4:32:13:73:e7:22:d1:4f:f7:14:16:0a:81:
        28:74:de:d8:f0:3b:18:80:06:d6:b5:ad:9c:e4:6e:25:aa:4f:
        68:f3:19:6b:74:c6:61:17
-----BEGIN CERTIFICATE-----
MIIEBTCCAe2gAwIBAgIESZYC0jANBgkqhkiG9w0BAQsFADAZMRcwFQYDVQQDDA5j
YS5leGFtcGxlLmNvbTAeFw0yMzAyMDYwNzQ3MzVaFw0yNDAyMDYwNzQ3MzVaMBsx
GTAXBgNVBAMMEHRlc3QuZXhhbXBsZS5jb20wggEiMA0GCSqGSIb3DQEBAQUAA4IB
DwAwggEKAoIBAQC+RzWtXFI7IKDUdfv4mKQj2kBqDeSKPyWOf/ugy04GEowquZ6y
jbZmsDvoSWCsywAYnGV/kA6IU1zJ+qnk1VYm0aNERzfZIwEPvWjpzcp8z6yMS1PK
YSqgfycl/Ht6crLAeJSi45xTDIGbubWtgQvfoAs5VUJvzSJ5RR9bve1Ew6FnZDuQ
A/eiN7O+wlT54WI2zrFqVPQbaxVCI/tktnb06WtE//PGm1Jf1fXZaJhwQU2OhjZU
dNK8a/uExb68EN/OEpI7xrjdJkXKBVTWbSzxO08QOtlK8y1py7X8Vdfz6t4NX2rU
f0gv84rB9J96mPMnt4rl3c1my5MlrKPqQzsVAgMBAAGjUzBRMB0GA1UdDgQWBBQU
+czy8VuwobQ6K3w2Eq7UhkNCNzAfBgNVHSMEGDAWgBQU+czy8VuwobQ6K3w2Eq7U
hkNCNzAPBgNVHRMBAf8EBTADAQH/MA0GCSqGSIb3DQEBCwUAA4ICAQA3iAXMyTBJ
7wv56qExTN/r+i5OufJNNeTrucM16R7bj5FWkSZeBw545LPWU72/D9pPDf6ZndJ+
UrIedfsLi1YL5WjMZNZCgzPCfZGga2lBX1KPF0rCmF5boFbmPckm/AA3O9y+zJRI
YzZ+sIJPSfo2oXkTB2771CB7CaZ4d29YpAhddfvcONbm86eVNi+7HIIn0E/26qJM
eG2/MxNThT6MKXwj8LCD6xbaTIY0EHKQ1Tt/yv6Ewh60cLU6jNUCNXeb+C9fcqrq
QAcb84hL6k82CyvMR0L0daN2l0t1/DYt2iPtFUJHA1yxqF8rYlLhJ1wf63j4VJZC
mAMfSe5VqG0a7w0b/5ndQRQ/oI22Rw/atSAnM3lbetdbP0/ovGMRoibAdZhHmz7T
DGFDzvLKjB9QinJQlm+BfCGhRFYEAkeQoSp1OOJq3UFwz/0TedBBZ+KxU4f1B2GK
U0EwWwxOaS5WYJGUt+QSGb9uK5bCOFsT0ink5JPDGk33anwSBCguZ0GHpDrXN+v0
RJR05+LtGcQLXFIP1s+YLc7WRP53jv1x6oy5NP+A4/LbeazD7LUdngZ3rVDF9eF0
nCl8u+XuoCpEsjDlhKAmM3zXu5iYDwsTAtUatoJOhn9IFKQyE3PnItFP9xQWCoEo
dN7Y8DsYgAbWta2c5G4lqk9o8xlrdMZhFw==
-----END CERTIFICATE-----
