Certificate:
    Data:
        Version: 1 (0x0)
        Serial Number:
            5b:b5:43:aa:6b:7b:97:40:7d:3a:8a:c0:d0:8c:be:7a:85:5a:96:6b
        Signature Algorithm: sha256WithRSAEncryption
        Issuer: CN = ca.example.com
        Validity
            Not Before: Feb  6 07:47:43 2023 GMT
            Not After : Mar  8 07:47:43 2023 GMT
        Subject: CN = b.example.com
        Subject Public Key Info:
            Public Key Algorithm: rsaEncryption
                Public-Key: (4096 bit)
                Modulus:
                    00:a8:c7:18:52:1a:df:9a:1a:a2:75:63:0e:1e:f0:
                    c9:3d:33:96:41:27:bd:5e:65:64:2b:8b:a3:10:25:
                    44:89:9a:d4:45:43:04:2c:6b:bc:e8:77:6d:50:83:
                    df:0f:e5:29:c5:f2:93:d6:79:96:64:4b:3c:24:2a:
                    17:3f:54:12:20:79:0a:ee:16:dd:1a:d6:2f:a5:0b:
                    c0:09:4b:14:4a:a8:40:aa:a8:7c:ee:0a:96:03:3f:
                    ae:92:c2:98:a2:76:90:32:07:a7:1d:26:7c:c9:aa:
                    ac:c7:cb:1b:6b:72:71:ed:1e:2e:00:c6:10:20:36:
                    26:05:50:52:fc:5e:15:60:a6:e0:2b:2c:7b:42:5a:
                    d4:bc:ff:72:47:b3:79:fa:f9:d4:93:48:b0:4e:02:
                    70:ba:d8:1e:80:91:50:0e:2c:3b:5c:21:9e:39:71:
                    20:28:60:8c:57:86:3c:83:91:a4:ed:4d:90:b5:d1:
                    08:a4:da:91:e0:98:04:2e:79:57:51:59:d4:83:e1:
                    73:45:d1:b8:5a:f5:0c:39:d5:dc:73:9c:bd:04:8d:
                    e6:4f:92:b8:6a:3c:34:a0:a4:da:9f:f2:82:ad:2d:
                    74:9e:5e:9e:4d:66:04:b2:2f:95:60:df:e1:04:e8:
                    20:7f:1c:81:3e:ec:b5:59:a0:6c:6f:2d:e1:37:c9:
                    d0:3c:69:81:85:a4:d8:60:a2:17:28:23:e0:02:88:
                    5b:41:da:d8:cf:7f:1e:a5:3c:f2:ac:4a:2d:46:36:
                    e4:37:39:e1:14:a4:e3:68:b1:90:8b:cd:86:5b:24:
                    f9:6e:bb:65:06:9c:41:a4:91:c5:9a:ca:4d:d9:73:
                    53:f5:cc:96:81:d7:97:db:3f:ee:dc:1b:bf:be:5b:
                    1c:b3:9f:c0:0c:82:e2:fe:c9:af:2e:07:3e:08:8f:
                    e9:03:0d:03:a2:8a:e0:13:8c:7e:91:d2:1b:2c:99:
                    2c:8c:4a:bf:28:d8:86:94:a1:37:05:e5:0f:d2:bd:
                    00:f9:ea:20:54:ef:19:fa:cf:0f:ae:77:f2:81:15:
                    89:a9:70:62:cd:31:c4:b6:f3:4b:81:40:39:bd:30:
                    22:eb:96:a8:98:53:73:67:cd:49:b7:2c:b0:91:5c:
                    3a:37:38:a6:fd:92:e6:84:3d:d3:4e:cf:7f:11:72:
                    d0:24:51:89:24:4f:e9:03:e6:14:6b:c0:bd:20:e9:
                    86:89:ef:80:9d:63:32:85:23:b5:e1:1c:35:fa:01:
                    73:15:32:bc:96:13:8d:f7:00:83:18:08:14:f8:54:
                    27:ee:8d:ab:0b:1b:db:a9:e2:9a:46:ba:88:3d:94:
                    be:a3:7a:04:74:c3:06:8b:cf:97:f6:4b:b6:0e:56:
                    4b:ab:d7
                Exponent: 65537 (0x10001)
    Signature Algorithm: sha256WithRSAEncryption
    Signature Value:
        74:38:7d:b4:13:83:7a:f9:80:1e:fe:25:49:03:37:fe:b4:cc:
        a5:f2:17:83:6b:41:36:6d:27:20:8f:b3:6c:bb:96:1e:0d:20:
        de:a8:90:c5:ab:17:63:3a:d0:be:b7:c3:a5:0f:8c:0f:57:f5:
        6b:30:40:09:51:0e:1f:1d:9e:9f:d1:96:4e:34:ab:40:17:aa:
        61:3f:fb:6a:09:d1:cd:c8:f1:b4:69:b5:ba:e0:e2:20:92:5b:
        a2:47:66:01:d6:e0:02:2b:11:19:73:d1:ca:d0:88:64:b6:09:
        a4:28:79:45:59:7f:92:98:55:17:6d:34:31:a1:79:5d:b1:c7:
        26:0d:d6:2b:3d:66:2a:e9:72:22:c8:c7:80:b4:43:9b:06:96:
        c7:b1:7e:50:0a:97:51:09:4b:9a:bb:18:16:d1:68:dd:01:35:
        ac:10:06:88:3d:99:73:6e:15:33:61:38:24:ce:06:ec:bf:36:
        52:3d:ab:d7:76:cf:d3:a4:31:aa:1e:9b:11:32:88:a3:c0:c8:
        eb:c8:85:11:b0:56:bf:c7:fd:c2:d4:34:2c:60:2e:89:17:b0:
        9a:52:b3:3c:ab:02:4e:bf:e9:d3:52:58:7c:6d:b6:a6:03:6b:
        0f:fc:9c:89:f7:0b:24:c7:27:e7:53:ab:95:54:b7:b6:21:25:
        7c:3a:11:d8:a5:9f:8e:99:85:dd:13:3e:b8:01:43:57:a2:71:
        cc:b4:61:cd:c1:5f:d1:56:28:3d:fe:8a:05:0b:5a:b0:c8:37:
        02:f2:22:8b:04:fe:5a:c0:54:97:72:7e:e5:b8:7b:c7:76:09:
        06:9d:5a:07:df:3b:15:bd:67:3f:6e:14:ae:8b:0d:aa:03:75:
        2e:19:7f:b5:bf:d4:6f:97:b2:14:ec:b2:92:79:f7:fc:c2:45:
        0f:40:9b:60:e9:30:5e:d0:61:0d:c7:ff:35:ce:16:e6:66:1c:
        d9:42:a5:0f:c1:90:08:2a:c0:1f:67:95:c7:31:84:de:ed:3b:
        ad:7e:9f:0c:fd:67:02:7b:54:b2:2d:f7:2a:48:7c:64:02:ad:
        11:9d:71:c6:d1:41:d3:df:73:dd:9f:40:16:83:40:7f:80:29:
        40:24:a5:da:27:20:c5:24:80:01:a5:c5:c2:65:da:54:8f:ba:
        ba:44:5d:86:22:fe:ee:1f:3b:67:69:38:9c:8c:3b:da:41:87:
        88:f6:d7:b2:d5:78:48:c5:a9:10:6c:2a:03:cb:89:7d:f7:93:
        60:cb:7b:1f:ba:df:cf:0b:ac:9d:05:6c:7a:cb:6a:9c:c2:2a:
        4b:d7:3e:5e:bb:13:fb:a4:d7:ca:66:6a:f7:d2:42:3e:ca:25:
        8d:8c:78:cb:5b:6a:2f:00
-----BEGIN CERTIFICATE-----
MIIEuDCCAqACFFu1Q6pre5dAfTqKwNCMvnqFWpZrMA0GCSqGSIb3DQEBCwUAMBkx
FzAVBgNVBAMMDmNhLmV4YW1wbGUuY29tMB4XDTIzMDIwNjA3NDc0M1oXDTIzMDMw
ODA3NDc0M1owGDEWMBQGA1UEAwwNYi5leGFtcGxlLmNvbTCCAiIwDQYJKoZIhvcN
AQEBBQADggIPADCCAgoCggIBAKjHGFIa35oaonVjDh7wyT0zlkEnvV5lZCuLoxAl
RIma1EVDBCxrvOh3bVCD3w/lKcXyk9Z5lmRLPCQqFz9UEiB5Cu4W3RrWL6ULwAlL
FEqoQKqofO4KlgM/rpLCmKJ2kDIHpx0mfMmqrMfLG2tyce0eLgDGECA2JgVQUvxe
FWCm4Csse0Ja1Lz/ckezefr51JNIsE4CcLrYHoCRUA4sO1whnjlxIChgjFeGPIOR
pO1NkLXRCKTakeCYBC55V1FZ1IPhc0XRuFr1DDnV3HOcvQSN5k+SuGo8NKCk2p/y
gq0tdJ5enk1mBLIvlWDf4QToIH8cgT7stVmgbG8t4TfJ0DxpgYWk2GCiFygj4AKI
W0Ha2M9/HqU88qxKLUY25Dc54RSk42ixkIvNhlsk+W67ZQacQaSRxZrKTdlzU/XM
loHXl9s/7twbv75bHLOfwAyC4v7Jry4HPgiP6QMNA6KK4BOMfpHSGyyZLIxKvyjY
hpShNwXlD9K9APnqIFTvGfrPD6538oEVialwYs0xxLbzS4FAOb0wIuuWqJhTc2fN
SbcssJFcOjc4pv2S5oQ9007PfxFy0CRRiSRP6QPmFGvAvSDphonvgJ1jMoUjteEc
NfoBcxUyvJYTjfcAgxgIFPhUJ+6Nqwsb26nimka6iD2UvqN6BHTDBovPl/ZLtg5W
S6vXAgMBAAEwDQYJKoZIhvcNAQELBQADggIBAHQ4fbQTg3r5gB7+JUkDN/60zKXy
F4NrQTZtJyCPs2y7lh4NIN6okMWrF2M60L63w6UPjA9X9WswQAlRDh8dnp/Rlk40
q0AXqmE/+2oJ0c3I8bRptbrg4iCSW6JHZgHW4AIrERlz0crQiGS2CaQoeUVZf5KY
VRdtNDGheV2xxyYN1is9ZirpciLIx4C0Q5sGlsexflAKl1EJS5q7GBbRaN0BNawQ
Bog9mXNuFTNhOCTOBuy/NlI9q9d2z9OkMaoemxEyiKPAyOvIhRGwVr/H/cLUNCxg
LokXsJpSszyrAk6/6dNSWHxttqYDaw/8nIn3CyTHJ+dTq5VUt7YhJXw6Ediln46Z
hd0TPrgBQ1eiccy0Yc3BX9FWKD3+igULWrDINwLyIosE/lrAVJdyfuW4e8d2CQad
WgffOxW9Zz9uFK6LDaoDdS4Zf7W/1G+XshTsspJ59/zCRQ9Am2DpMF7QYQ3H/zXO
FuZmHNlCpQ/BkAgqwB9nlccxhN7tO61+nwz9ZwJ7VLIt9ypIfGQCrRGdccbRQdPf
c92fQBaDQH+AKUAkpdonIMUkgAGlxcJl2lSPurpEXYYi/u4fO2dpOJyMO9pBh4j2
17LVeEjFqRBsKgPLiX33k2DLex+6388LrJ0FbHrLapzCKkvXPl67E/uk18pmavfS
Qj7KJY2MeMtbai8A
-----END CERTIFICATE-----
